(lp0
(S'cppflags'
p1
ccopy_reg
_reconstructor
p2
(cino.utils
SpaceList
p3
c__builtin__
list
p4
(lp5
S'-mmcu=atmega328p'
p6
aS'-DF_CPU=16000000L'
p7
aS'-DARDUINO=105'
p8
aS'-I/usr/share/arduino/hardware/arduino/cores/arduino'
p9
aS'-ffunction-sections'
p10
aS'-fdata-sections'
p11
aS'-g'
p12
aS'-Os'
p13
aS'-w'
p14
aS'-I/usr/share/arduino/hardware/arduino/variants/standard'
p15
atp16
Rp17
tp18
a(S'cxx'
p19
S'/usr/share/arduino/hardware/tools/avr/bin/avr-g++'
p20
tp21
a(S'version.txt'
p22
S'/usr/share/arduino/lib/version.txt'
p23
tp24
a(S'used_libs'
p25
(lp26
S'lib/MIDI'
p27
aS'/usr/share/arduino/hardware/arduino/cores/arduino'
p28
atp29
a(S'cc'
p30
S'/usr/share/arduino/hardware/tools/avr/bin/avr-gcc'
p31
tp32
a(S'make'
p33
S'/usr/bin/make'
p34
tp35
a(S'cflags'
p36
g2
(g3
g4
(lp37
tp38
Rp39
tp40
a(S'build_dir'
p41
S'.build/uno'
p42
tp43
a(S'arduino_core_dir'
p44
g28
tp45
a(S'boards.txt'
p46
S'/usr/share/arduino/hardware/arduino/boards.txt'
p47
tp48
a(S'cxxflags'
p49
g2
(g3
g4
(lp50
S'-fno-exceptions'
p51
atp52
Rp53
tp54
a(S'arduino_variants_dir'
p55
S'/usr/share/arduino/hardware/arduino/variants'
p56
tp57
a(S'ar'
p58
S'/usr/share/arduino/hardware/tools/avr/bin/avr-ar'
p59
tp60
a(S'names'
p61
(dp62
S'cpp'
p63
S'%s.cpp'
p64
sS'obj'
p65
S'%s.o'
p66
sS'deps'
p67
S'%s.d'
p68
sS'lib'
p69
S'lib%s.a'
p70
stp71
a(S'deps'
p72
g2
(g3
g4
(lp73
tp74
Rp75
tp76
a(S'arduino_libraries_dir'
p77
S'/usr/share/arduino/libraries'
p78
tp79
a(S'arduino_lib_version'
p80
g2
(cino.environment
Version
p81
c__builtin__
tuple
p82
(I1
I0
I5
tp83
tp84
Rp85
tp86
a(S'objcopy'
p87
S'/usr/share/arduino/hardware/tools/avr/bin/avr-objcopy'
p88
tp89
a(S'board_models'
p90
cino.environment
BoardModels
p91
((lp92
(lp93
S'uno'
p94
a(dp95
S'bootloader'
p96
(dp97
S'extended_fuses'
p98
S'0x05'
p99
sS'high_fuses'
p100
S'0xde'
p101
sS'low_fuses'
p102
S'0xff'
p103
sS'lock_bits'
p104
S'0x0F'
p105
sS'file'
p106
S'optiboot_atmega328.hex'
p107
sS'path'
p108
S'optiboot'
p109
sS'unlock_bits'
p110
S'0x3F'
p111
ssS'upload'
p112
(dp113
S'protocol'
p114
S'arduino'
p115
sS'maximum_size'
p116
S'32256'
p117
sS'speed'
p118
S'115200'
p119
ssS'build'
p120
(dp121
S'core'
p122
S'arduino'
p123
sS'mcu'
p124
S'atmega328p'
p125
sS'cppoption1'
p126
S'-fno-use-cxa-atexit'
p127
sS'f_cpu'
p128
S'16000000L'
p129
sS'variant'
p130
S'standard'
p131
ssS'name'
p132
S'Arduino Uno'
p133
saa(lp134
S'atmega328'
p135
a(dp136
S'bootloader'
p137
(dp138
S'extended_fuses'
p139
S'0x05'
p140
sS'high_fuses'
p141
S'0xDA'
p142
sS'low_fuses'
p143
S'0xFF'
p144
sS'lock_bits'
p145
S'0x0F'
p146
sS'file'
p147
S'ATmegaBOOT_168_atmega328.hex'
p148
sS'path'
p149
S'atmega'
p150
sS'unlock_bits'
p151
S'0x3F'
p152
ssS'upload'
p153
(dp154
S'protocol'
p155
S'arduino'
p156
sS'maximum_size'
p157
S'30720'
p158
sS'speed'
p159
S'57600'
p160
ssS'build'
p161
(dp162
S'core'
p163
S'arduino'
p164
sS'mcu'
p165
S'atmega328p'
p166
sS'cppoption1'
p167
S'-fno-use-cxa-atexit'
p168
sS'f_cpu'
p169
S'16000000L'
p170
sS'variant'
p171
S'standard'
p172
ssS'name'
p173
S'Arduino Duemilanove w/ ATmega328'
p174
saa(lp175
S'diecimila'
p176
a(dp177
S'bootloader'
p178
(dp179
S'extended_fuses'
p180
S'0x00'
p181
sS'high_fuses'
p182
S'0xdd'
p183
sS'low_fuses'
p184
S'0xff'
p185
sS'lock_bits'
p186
S'0x0F'
p187
sS'file'
p188
S'ATmegaBOOT_168_diecimila.hex'
p189
sS'path'
p190
S'atmega'
p191
sS'unlock_bits'
p192
S'0x3F'
p193
ssS'upload'
p194
(dp195
S'protocol'
p196
S'arduino'
p197
sS'maximum_size'
p198
S'14336'
p199
sS'speed'
p200
S'19200'
p201
ssS'build'
p202
(dp203
S'core'
p204
S'arduino'
p205
sS'mcu'
p206
S'atmega168'
p207
sS'cppoption1'
p208
S'-fno-use-cxa-atexit'
p209
sS'f_cpu'
p210
S'16000000L'
p211
sS'variant'
p212
S'standard'
p213
ssS'name'
p214
S'Arduino Diecimila or Duemilanove w/ ATmega168'
p215
saa(lp216
S'nano328'
p217
a(dp218
S'bootloader'
p219
(dp220
S'extended_fuses'
p221
S'0x05'
p222
sS'high_fuses'
p223
S'0xDA'
p224
sS'low_fuses'
p225
S'0xFF'
p226
sS'lock_bits'
p227
S'0x0F'
p228
sS'file'
p229
S'ATmegaBOOT_168_atmega328.hex'
p230
sS'path'
p231
S'atmega'
p232
sS'unlock_bits'
p233
S'0x3F'
p234
ssS'upload'
p235
(dp236
S'protocol'
p237
S'arduino'
p238
sS'maximum_size'
p239
S'30720'
p240
sS'speed'
p241
S'57600'
p242
ssS'build'
p243
(dp244
S'core'
p245
S'arduino'
p246
sS'mcu'
p247
S'atmega328p'
p248
sS'cppoption1'
p249
S'-fno-use-cxa-atexit'
p250
sS'f_cpu'
p251
S'16000000L'
p252
sS'variant'
p253
S'eightanaloginputs'
p254
ssS'name'
p255
S'Arduino Nano w/ ATmega328'
p256
saa(lp257
S'nano'
p258
a(dp259
S'bootloader'
p260
(dp261
S'extended_fuses'
p262
S'0x00'
p263
sS'high_fuses'
p264
S'0xdd'
p265
sS'low_fuses'
p266
S'0xff'
p267
sS'lock_bits'
p268
S'0x0F'
p269
sS'file'
p270
S'ATmegaBOOT_168_diecimila.hex'
p271
sS'path'
p272
S'atmega'
p273
sS'unlock_bits'
p274
S'0x3F'
p275
ssS'upload'
p276
(dp277
S'protocol'
p278
S'arduino'
p279
sS'maximum_size'
p280
S'14336'
p281
sS'speed'
p282
S'19200'
p283
ssS'build'
p284
(dp285
S'core'
p286
S'arduino'
p287
sS'mcu'
p288
S'atmega168'
p289
sS'cppoption1'
p290
S'-fno-use-cxa-atexit'
p291
sS'f_cpu'
p292
S'16000000L'
p293
sS'variant'
p294
S'eightanaloginputs'
p295
ssS'name'
p296
S'Arduino Nano w/ ATmega168'
p297
saa(lp298
S'mega2560'
p299
a(dp300
S'bootloader'
p301
(dp302
S'extended_fuses'
p303
S'0xFD'
p304
sS'high_fuses'
p305
S'0xD8'
p306
sS'low_fuses'
p307
S'0xFF'
p308
sS'lock_bits'
p309
S'0x0F'
p310
sS'file'
p311
S'stk500boot_v2_mega2560.hex'
p312
sS'path'
p313
S'stk500v2'
p314
sS'unlock_bits'
p315
S'0x3F'
p316
ssS'upload'
p317
(dp318
S'protocol'
p319
S'wiring'
p320
sS'maximum_size'
p321
S'258048'
p322
sS'speed'
p323
S'115200'
p324
ssS'build'
p325
(dp326
S'core'
p327
S'arduino'
p328
sS'mcu'
p329
S'atmega2560'
p330
sS'cppoption1'
p331
S'-fno-use-cxa-atexit'
p332
sS'f_cpu'
p333
S'16000000L'
p334
sS'variant'
p335
S'mega'
p336
ssS'name'
p337
S'Arduino Mega 2560 or Mega ADK'
p338
saa(lp339
S'mega'
p340
a(dp341
S'bootloader'
p342
(dp343
S'extended_fuses'
p344
S'0xF5'
p345
sS'high_fuses'
p346
S'0xDA'
p347
sS'low_fuses'
p348
S'0xFF'
p349
sS'lock_bits'
p350
S'0x0F'
p351
sS'file'
p352
S'ATmegaBOOT_168_atmega1280.hex'
p353
sS'path'
p354
S'atmega'
p355
sS'unlock_bits'
p356
S'0x3F'
p357
ssS'upload'
p358
(dp359
S'protocol'
p360
S'arduino'
p361
sS'maximum_size'
p362
S'126976'
p363
sS'speed'
p364
S'57600'
p365
ssS'build'
p366
(dp367
S'core'
p368
S'arduino'
p369
sS'mcu'
p370
S'atmega1280'
p371
sS'cppoption1'
p372
S'-fno-use-cxa-atexit'
p373
sS'f_cpu'
p374
S'16000000L'
p375
sS'variant'
p376
S'mega'
p377
ssS'name'
p378
S'Arduino Mega (ATmega1280)'
p379
saa(lp380
S'leonardo'
p381
a(dp382
S'bootloader'
p383
(dp384
S'extended_fuses'
p385
S'0xcb'
p386
sS'high_fuses'
p387
S'0xd8'
p388
sS'low_fuses'
p389
S'0xff'
p390
sS'lock_bits'
p391
S'0x2F'
p392
sS'file'
p393
S'Caterina-Leonardo.hex'
p394
sS'path'
p395
S'caterina'
p396
sS'unlock_bits'
p397
S'0x3F'
p398
ssS'upload'
p399
(dp400
S'protocol'
p401
S'avr109'
p402
sS'maximum_size'
p403
S'28672'
p404
sS'speed'
p405
S'57600'
p406
sS'disable_flushing'
p407
S'true'
p408
ssS'build'
p409
(dp410
S'core'
p411
S'arduino'
p412
sS'f_cpu'
p413
S'16000000L'
p414
sS'vid'
p415
S'0x2341'
p416
sS'pid'
p417
S'0x8036'
p418
sS'cppoption1'
p419
S'-fno-use-cxa-atexit'
p420
sS'variant'
p421
S'leonardo'
p422
sS'mcu'
p423
S'atmega32u4'
p424
ssS'name'
p425
S'Arduino Leonardo'
p426
saa(lp427
S'esplora'
p428
a(dp429
S'bootloader'
p430
(dp431
S'extended_fuses'
p432
S'0xcb'
p433
sS'high_fuses'
p434
S'0xd8'
p435
sS'low_fuses'
p436
S'0xff'
p437
sS'lock_bits'
p438
S'0x2F'
p439
sS'file'
p440
S'Caterina-Esplora.hex'
p441
sS'path'
p442
S'caterina'
p443
sS'unlock_bits'
p444
S'0x3F'
p445
ssS'upload'
p446
(dp447
S'protocol'
p448
S'avr109'
p449
sS'maximum_size'
p450
S'28672'
p451
sS'speed'
p452
S'57600'
p453
sS'disable_flushing'
p454
S'true'
p455
ssS'build'
p456
(dp457
S'core'
p458
S'arduino'
p459
sS'f_cpu'
p460
S'16000000L'
p461
sS'vid'
p462
S'0x2341'
p463
sS'pid'
p464
S'0x803C'
p465
sS'cppoption1'
p466
S'-fno-use-cxa-atexit'
p467
sS'variant'
p468
S'leonardo'
p469
sS'mcu'
p470
S'atmega32u4'
p471
ssS'name'
p472
S'Arduino Esplora'
p473
saa(lp474
S'micro'
p475
a(dp476
S'bootloader'
p477
(dp478
S'extended_fuses'
p479
S'0xcb'
p480
sS'high_fuses'
p481
S'0xd8'
p482
sS'low_fuses'
p483
S'0xff'
p484
sS'lock_bits'
p485
S'0x2F'
p486
sS'file'
p487
S'Caterina-Micro.hex'
p488
sS'path'
p489
S'caterina'
p490
sS'unlock_bits'
p491
S'0x3F'
p492
ssS'upload'
p493
(dp494
S'protocol'
p495
S'avr109'
p496
sS'maximum_size'
p497
S'28672'
p498
sS'speed'
p499
S'57600'
p500
sS'disable_flushing'
p501
S'true'
p502
ssS'build'
p503
(dp504
S'core'
p505
S'arduino'
p506
sS'f_cpu'
p507
S'16000000L'
p508
sS'vid'
p509
S'0x2341'
p510
sS'pid'
p511
S'0x8037'
p512
sS'cppoption1'
p513
S'-fno-use-cxa-atexit'
p514
sS'variant'
p515
S'micro'
p516
sS'mcu'
p517
S'atmega32u4'
p518
ssS'name'
p519
S'Arduino Micro'
p520
saa(lp521
S'mini328'
p522
a(dp523
S'bootloader'
p524
(dp525
S'extended_fuses'
p526
S'0x05'
p527
sS'high_fuses'
p528
S'0xd8'
p529
sS'low_fuses'
p530
S'0xff'
p531
sS'lock_bits'
p532
S'0x0F'
p533
sS'file'
p534
S'optiboot_atmega328-Mini.hex'
p535
sS'path'
p536
S'optiboot'
p537
sS'unlock_bits'
p538
S'0x3F'
p539
ssS'upload'
p540
(dp541
S'protocol'
p542
S'arduino'
p543
sS'maximum_size'
p544
S'28672'
p545
sS'speed'
p546
S'115200'
p547
ssS'build'
p548
(dp549
S'core'
p550
S'arduino'
p551
sS'mcu'
p552
S'atmega328p'
p553
sS'cppoption1'
p554
S'-fno-use-cxa-atexit'
p555
sS'f_cpu'
p556
S'16000000L'
p557
sS'variant'
p558
S'eightanaloginputs'
p559
ssS'name'
p560
S'Arduino Mini w/ ATmega328'
p561
saa(lp562
S'mini'
p563
a(dp564
S'bootloader'
p565
(dp566
S'extended_fuses'
p567
S'0x00'
p568
sS'high_fuses'
p569
S'0xdd'
p570
sS'low_fuses'
p571
S'0xff'
p572
sS'lock_bits'
p573
S'0x0F'
p574
sS'file'
p575
S'ATmegaBOOT_168_ng.hex'
p576
sS'path'
p577
S'atmega'
p578
sS'unlock_bits'
p579
S'0x3F'
p580
ssS'upload'
p581
(dp582
S'protocol'
p583
S'arduino'
p584
sS'maximum_size'
p585
S'14336'
p586
sS'speed'
p587
S'19200'
p588
ssS'build'
p589
(dp590
S'core'
p591
S'arduino'
p592
sS'mcu'
p593
S'atmega168'
p594
sS'cppoption1'
p595
S'-fno-use-cxa-atexit'
p596
sS'f_cpu'
p597
S'16000000L'
p598
sS'variant'
p599
S'eightanaloginputs'
p600
ssS'name'
p601
S'Arduino Mini w/ ATmega168'
p602
saa(lp603
S'ethernet'
p604
a(dp605
S'bootloader'
p606
(dp607
S'extended_fuses'
p608
S'0x05'
p609
sS'high_fuses'
p610
S'0xde'
p611
sS'low_fuses'
p612
S'0xff'
p613
sS'lock_bits'
p614
S'0x0F'
p615
sS'file'
p616
S'optiboot_atmega328.hex'
p617
sS'path'
p618
S'optiboot'
p619
sS'unlock_bits'
p620
S'0x3F'
p621
ssS'upload'
p622
(dp623
S'protocol'
p624
S'arduino'
p625
sS'maximum_size'
p626
S'32256'
p627
sS'speed'
p628
S'115200'
p629
ssS'build'
p630
(dp631
S'variant'
p632
S'standard'
p633
sS'mcu'
p634
S'atmega328p'
p635
sS'cppoption1'
p636
S'-fno-use-cxa-atexit'
p637
sS'f_cpu'
p638
S'16000000L'
p639
sS'core'
p640
S'arduino'
p641
ssS'name'
p642
S'Arduino Ethernet'
p643
saa(lp644
S'fio'
p645
a(dp646
S'bootloader'
p647
(dp648
S'extended_fuses'
p649
S'0x05'
p650
sS'high_fuses'
p651
S'0xDA'
p652
sS'low_fuses'
p653
S'0xFF'
p654
sS'lock_bits'
p655
S'0x0F'
p656
sS'file'
p657
S'ATmegaBOOT_168_atmega328_pro_8MHz.hex'
p658
sS'path'
p659
S'arduino:atmega'
p660
sS'unlock_bits'
p661
S'0x3F'
p662
ssS'upload'
p663
(dp664
S'protocol'
p665
S'arduino'
p666
sS'maximum_size'
p667
S'30720'
p668
sS'speed'
p669
S'57600'
p670
ssS'build'
p671
(dp672
S'core'
p673
S'arduino'
p674
sS'mcu'
p675
S'atmega328p'
p676
sS'cppoption1'
p677
S'-fno-use-cxa-atexit'
p678
sS'f_cpu'
p679
S'8000000L'
p680
sS'variant'
p681
S'eightanaloginputs'
p682
ssS'name'
p683
S'Arduino Fio'
p684
saa(lp685
S'bt328'
p686
a(dp687
S'bootloader'
p688
(dp689
S'extended_fuses'
p690
S'0x05'
p691
sS'high_fuses'
p692
S'0xd8'
p693
sS'low_fuses'
p694
S'0xff'
p695
sS'lock_bits'
p696
S'0x0F'
p697
sS'file'
p698
S'ATmegaBOOT_168_atmega328_bt.hex'
p699
sS'path'
p700
S'bt'
p701
sS'unlock_bits'
p702
S'0x3F'
p703
ssS'upload'
p704
(dp705
S'protocol'
p706
S'arduino'
p707
sS'maximum_size'
p708
S'28672'
p709
sS'speed'
p710
S'19200'
p711
sS'disable_flushing'
p712
S'true'
p713
ssS'build'
p714
(dp715
S'core'
p716
S'arduino'
p717
sS'mcu'
p718
S'atmega328p'
p719
sS'cppoption1'
p720
S'-fno-use-cxa-atexit'
p721
sS'f_cpu'
p722
S'16000000L'
p723
sS'variant'
p724
S'eightanaloginputs'
p725
ssS'name'
p726
S'Arduino BT w/ ATmega328'
p727
saa(lp728
S'bt'
p729
a(dp730
S'bootloader'
p731
(dp732
S'extended_fuses'
p733
S'0x00'
p734
sS'high_fuses'
p735
S'0xdd'
p736
sS'low_fuses'
p737
S'0xff'
p738
sS'lock_bits'
p739
S'0x0F'
p740
sS'file'
p741
S'ATmegaBOOT_168.hex'
p742
sS'path'
p743
S'bt'
p744
sS'unlock_bits'
p745
S'0x3F'
p746
ssS'upload'
p747
(dp748
S'protocol'
p749
S'arduino'
p750
sS'maximum_size'
p751
S'14336'
p752
sS'speed'
p753
S'19200'
p754
sS'disable_flushing'
p755
S'true'
p756
ssS'build'
p757
(dp758
S'core'
p759
S'arduino'
p760
sS'mcu'
p761
S'atmega168'
p762
sS'cppoption1'
p763
S'-fno-use-cxa-atexit'
p764
sS'f_cpu'
p765
S'16000000L'
p766
sS'variant'
p767
S'eightanaloginputs'
p768
ssS'name'
p769
S'Arduino BT w/ ATmega168'
p770
saa(lp771
S'LilyPadUSB'
p772
a(dp773
S'bootloader'
p774
(dp775
S'extended_fuses'
p776
S'0xce'
p777
sS'high_fuses'
p778
S'0xd8'
p779
sS'low_fuses'
p780
S'0xff'
p781
sS'lock_bits'
p782
S'0x2F'
p783
sS'file'
p784
S'Caterina-LilyPadUSB.hex'
p785
sS'path'
p786
S'caterina-LilyPadUSB'
p787
sS'unlock_bits'
p788
S'0x3F'
p789
ssS'upload'
p790
(dp791
S'protocol'
p792
S'avr109'
p793
sS'maximum_size'
p794
S'28672'
p795
sS'speed'
p796
S'57600'
p797
sS'disable_flushing'
p798
S'true'
p799
ssS'build'
p800
(dp801
S'core'
p802
S'arduino'
p803
sS'f_cpu'
p804
S'8000000L'
p805
sS'vid'
p806
S'0x1B4F'
p807
sS'pid'
p808
S'0x9208'
p809
sS'cppoption1'
p810
S'-fno-use-cxa-atexit'
p811
sS'variant'
p812
S'leonardo'
p813
sS'mcu'
p814
S'atmega32u4'
p815
ssS'name'
p816
S'LilyPad Arduino USB'
p817
saa(lp818
S'lilypad328'
p819
a(dp820
S'bootloader'
p821
(dp822
S'extended_fuses'
p823
S'0x05'
p824
sS'high_fuses'
p825
S'0xDA'
p826
sS'low_fuses'
p827
S'0xFF'
p828
sS'lock_bits'
p829
S'0x0F'
p830
sS'file'
p831
S'ATmegaBOOT_168_atmega328_pro_8MHz.hex'
p832
sS'path'
p833
S'atmega'
p834
sS'unlock_bits'
p835
S'0x3F'
p836
ssS'upload'
p837
(dp838
S'protocol'
p839
S'arduino'
p840
sS'maximum_size'
p841
S'30720'
p842
sS'speed'
p843
S'57600'
p844
ssS'build'
p845
(dp846
S'core'
p847
S'arduino'
p848
sS'mcu'
p849
S'atmega328p'
p850
sS'cppoption1'
p851
S'-fno-use-cxa-atexit'
p852
sS'f_cpu'
p853
S'8000000L'
p854
sS'variant'
p855
S'standard'
p856
ssS'name'
p857
S'LilyPad Arduino w/ ATmega328'
p858
saa(lp859
S'lilypad'
p860
a(dp861
S'bootloader'
p862
(dp863
S'extended_fuses'
p864
S'0x00'
p865
sS'high_fuses'
p866
S'0xdd'
p867
sS'low_fuses'
p868
S'0xe2'
p869
sS'lock_bits'
p870
S'0x0F'
p871
sS'file'
p872
S'LilyPadBOOT_168.hex'
p873
sS'path'
p874
S'lilypad'
p875
sS'unlock_bits'
p876
S'0x3F'
p877
ssS'upload'
p878
(dp879
S'protocol'
p880
S'arduino'
p881
sS'maximum_size'
p882
S'14336'
p883
sS'speed'
p884
S'19200'
p885
ssS'build'
p886
(dp887
S'core'
p888
S'arduino'
p889
sS'mcu'
p890
S'atmega168'
p891
sS'cppoption1'
p892
S'-fno-use-cxa-atexit'
p893
sS'f_cpu'
p894
S'8000000L'
p895
sS'variant'
p896
S'standard'
p897
ssS'name'
p898
S'LilyPad Arduino w/ ATmega168'
p899
saa(lp900
S'pro5v328'
p901
a(dp902
S'bootloader'
p903
(dp904
S'extended_fuses'
p905
S'0x05'
p906
sS'high_fuses'
p907
S'0xDA'
p908
sS'low_fuses'
p909
S'0xFF'
p910
sS'lock_bits'
p911
S'0x0F'
p912
sS'file'
p913
S'ATmegaBOOT_168_atmega328.hex'
p914
sS'path'
p915
S'atmega'
p916
sS'unlock_bits'
p917
S'0x3F'
p918
ssS'upload'
p919
(dp920
S'protocol'
p921
S'arduino'
p922
sS'maximum_size'
p923
S'30720'
p924
sS'speed'
p925
S'57600'
p926
ssS'build'
p927
(dp928
S'core'
p929
S'arduino'
p930
sS'mcu'
p931
S'atmega328p'
p932
sS'cppoption1'
p933
S'-fno-use-cxa-atexit'
p934
sS'f_cpu'
p935
S'16000000L'
p936
sS'variant'
p937
S'standard'
p938
ssS'name'
p939
S'Arduino Pro or Pro Mini (5V, 16 MHz) w/ ATmega328'
p940
saa(lp941
S'pro5v'
p942
a(dp943
S'bootloader'
p944
(dp945
S'extended_fuses'
p946
S'0x00'
p947
sS'high_fuses'
p948
S'0xdd'
p949
sS'low_fuses'
p950
S'0xff'
p951
sS'lock_bits'
p952
S'0x0F'
p953
sS'file'
p954
S'ATmegaBOOT_168_diecimila.hex'
p955
sS'path'
p956
S'atmega'
p957
sS'unlock_bits'
p958
S'0x3F'
p959
ssS'upload'
p960
(dp961
S'protocol'
p962
S'arduino'
p963
sS'maximum_size'
p964
S'14336'
p965
sS'speed'
p966
S'19200'
p967
ssS'build'
p968
(dp969
S'core'
p970
S'arduino'
p971
sS'mcu'
p972
S'atmega168'
p973
sS'cppoption1'
p974
S'-fno-use-cxa-atexit'
p975
sS'f_cpu'
p976
S'16000000L'
p977
sS'variant'
p978
S'standard'
p979
ssS'name'
p980
S'Arduino Pro or Pro Mini (5V, 16 MHz) w/ ATmega168'
p981
saa(lp982
S'pro328'
p983
a(dp984
S'bootloader'
p985
(dp986
S'extended_fuses'
p987
S'0x05'
p988
sS'high_fuses'
p989
S'0xDA'
p990
sS'low_fuses'
p991
S'0xFF'
p992
sS'lock_bits'
p993
S'0x0F'
p994
sS'file'
p995
S'ATmegaBOOT_168_atmega328_pro_8MHz.hex'
p996
sS'path'
p997
S'atmega'
p998
sS'unlock_bits'
p999
S'0x3F'
p1000
ssS'upload'
p1001
(dp1002
S'protocol'
p1003
S'arduino'
p1004
sS'maximum_size'
p1005
S'30720'
p1006
sS'speed'
p1007
S'57600'
p1008
ssS'build'
p1009
(dp1010
S'core'
p1011
S'arduino'
p1012
sS'mcu'
p1013
S'atmega328p'
p1014
sS'cppoption1'
p1015
S'-fno-use-cxa-atexit'
p1016
sS'f_cpu'
p1017
S'8000000L'
p1018
sS'variant'
p1019
S'standard'
p1020
ssS'name'
p1021
S'Arduino Pro or Pro Mini (3.3V, 8 MHz) w/ ATmega328'
p1022
saa(lp1023
S'pro'
p1024
a(dp1025
S'bootloader'
p1026
(dp1027
S'extended_fuses'
p1028
S'0x00'
p1029
sS'high_fuses'
p1030
S'0xdd'
p1031
sS'low_fuses'
p1032
S'0xc6'
p1033
sS'lock_bits'
p1034
S'0x0F'
p1035
sS'file'
p1036
S'ATmegaBOOT_168_pro_8MHz.hex'
p1037
sS'path'
p1038
S'atmega'
p1039
sS'unlock_bits'
p1040
S'0x3F'
p1041
ssS'upload'
p1042
(dp1043
S'protocol'
p1044
S'arduino'
p1045
sS'maximum_size'
p1046
S'14336'
p1047
sS'speed'
p1048
S'19200'
p1049
ssS'build'
p1050
(dp1051
S'core'
p1052
S'arduino'
p1053
sS'mcu'
p1054
S'atmega168'
p1055
sS'cppoption1'
p1056
S'-fno-use-cxa-atexit'
p1057
sS'f_cpu'
p1058
S'8000000L'
p1059
sS'variant'
p1060
S'standard'
p1061
ssS'name'
p1062
S'Arduino Pro or Pro Mini (3.3V, 8 MHz) w/ ATmega168'
p1063
saa(lp1064
S'atmega168'
p1065
a(dp1066
S'bootloader'
p1067
(dp1068
S'extended_fuses'
p1069
S'0x00'
p1070
sS'high_fuses'
p1071
S'0xdd'
p1072
sS'low_fuses'
p1073
S'0xff'
p1074
sS'lock_bits'
p1075
S'0x0F'
p1076
sS'file'
p1077
S'ATmegaBOOT_168_ng.hex'
p1078
sS'path'
p1079
S'atmega'
p1080
sS'unlock_bits'
p1081
S'0x3F'
p1082
ssS'upload'
p1083
(dp1084
S'protocol'
p1085
S'arduino'
p1086
sS'maximum_size'
p1087
S'14336'
p1088
sS'speed'
p1089
S'19200'
p1090
ssS'build'
p1091
(dp1092
S'core'
p1093
S'arduino'
p1094
sS'mcu'
p1095
S'atmega168'
p1096
sS'cppoption1'
p1097
S'-fno-use-cxa-atexit'
p1098
sS'f_cpu'
p1099
S'16000000L'
p1100
sS'variant'
p1101
S'standard'
p1102
ssS'name'
p1103
S'Arduino NG or older w/ ATmega168'
p1104
saa(lp1105
S'atmega8'
p1106
a(dp1107
S'bootloader'
p1108
(dp1109
S'high_fuses'
p1110
S'0xca'
p1111
sS'low_fuses'
p1112
S'0xdf'
p1113
sS'lock_bits'
p1114
S'0x0F'
p1115
sS'file'
p1116
S'ATmegaBOOT-prod-firmware-2009-11-07.hex'
p1117
sS'path'
p1118
S'atmega8'
p1119
sS'unlock_bits'
p1120
S'0x3F'
p1121
ssS'upload'
p1122
(dp1123
S'protocol'
p1124
S'arduino'
p1125
sS'maximum_size'
p1126
S'7168'
p1127
sS'speed'
p1128
S'19200'
p1129
ssS'build'
p1130
(dp1131
S'core'
p1132
S'arduino'
p1133
sS'mcu'
p1134
S'atmega8'
p1135
sS'cppoption1'
p1136
S'-fno-use-cxa-atexit'
p1137
sS'f_cpu'
p1138
S'16000000L'
p1139
sS'variant'
p1140
S'standard'
p1141
ssS'name'
p1142
S'Arduino NG or older w/ ATmega8'
p1143
saa(lp1144
S'robotControl'
p1145
a(dp1146
S'bootloader'
p1147
(dp1148
S'extended_fuses'
p1149
S'0xcb'
p1150
sS'high_fuses'
p1151
S'0xd8'
p1152
sS'low_fuses'
p1153
S'0xff'
p1154
sS'lock_bits'
p1155
S'0x2F'
p1156
sS'file'
p1157
S'Caterina-Robot-Control.hex'
p1158
sS'path'
p1159
S'caterina-Arduino_Robot'
p1160
sS'unlock_bits'
p1161
S'0x3F'
p1162
ssS'upload'
p1163
(dp1164
S'protocol'
p1165
S'avr109'
p1166
sS'maximum_size'
p1167
S'28672'
p1168
sS'speed'
p1169
S'57600'
p1170
sS'disable_flushing'
p1171
S'true'
p1172
ssS'build'
p1173
(dp1174
S'core'
p1175
S'robot'
p1176
sS'f_cpu'
p1177
S'16000000L'
p1178
sS'vid'
p1179
S'0x2341'
p1180
sS'pid'
p1181
S'0x8038'
p1182
sS'cppoption1'
p1183
S'-fno-use-cxa-atexit'
p1184
sS'variant'
p1185
S'robot_control'
p1186
sS'mcu'
p1187
S'atmega32u4'
p1188
ssS'name'
p1189
S'Arduino Robot Control'
p1190
saa(lp1191
S'robotMotor'
p1192
a(dp1193
S'bootloader'
p1194
(dp1195
S'extended_fuses'
p1196
S'0xcb'
p1197
sS'high_fuses'
p1198
S'0xd8'
p1199
sS'low_fuses'
p1200
S'0xff'
p1201
sS'lock_bits'
p1202
S'0x2F'
p1203
sS'file'
p1204
S'Caterina-Robot-Motor.hex'
p1205
sS'path'
p1206
S'caterina-Arduino_Robot'
p1207
sS'unlock_bits'
p1208
S'0x3F'
p1209
ssS'upload'
p1210
(dp1211
S'protocol'
p1212
S'avr109'
p1213
sS'maximum_size'
p1214
S'28672'
p1215
sS'speed'
p1216
S'57600'
p1217
sS'disable_flushing'
p1218
S'true'
p1219
ssS'build'
p1220
(dp1221
S'core'
p1222
S'robot'
p1223
sS'f_cpu'
p1224
S'16000000L'
p1225
sS'vid'
p1226
S'0x2341'
p1227
sS'pid'
p1228
S'0x8039'
p1229
sS'cppoption1'
p1230
S'-fno-use-cxa-atexit'
p1231
sS'variant'
p1232
S'robot_motor'
p1233
sS'mcu'
p1234
S'atmega32u4'
p1235
ssS'name'
p1236
S'Arduino Robot Motor'
p1237
saatp1238
Rp1239
(dp1240
S'default'
p1241
S'uno'
p1242
sbtp1243
a(S'ldflags'
p1244
g2
(g3
g4
(lp1245
g6
aS'-Wl,-Os'
p1246
aS'-Wl,--gc-sections'
p1247
atp1248
Rp1249
tp1250
a.