(lp0
(S'stty'
p1
S'/usr/bin/stty'
p2
tp3
a(S'version.txt'
p4
S'/usr/share/arduino/lib/version.txt'
p5
tp6
a(S'used_libs'
p7
(lp8
S'/usr/share/arduino/hardware/arduino/cores/arduino'
p9
atp10
a(S'cc'
p11
S'/usr/share/arduino/hardware/tools/avr/bin/avr-gcc'
p12
tp13
a(S'cflags'
p14
ccopy_reg
_reconstructor
p15
(cino.utils
SpaceList
p16
c__builtin__
list
p17
(lp18
S'-mmcu=atmega328p'
p19
aS'-ffunction-sections'
p20
aS'-fdata-sections'
p21
aS'-g'
p22
aS'-Os'
p23
aS'-w'
p24
aS'-DF_CPU=16000000L'
p25
aS'-DARDUINO=100'
p26
aS'-I/usr/share/arduino/hardware/arduino/cores/arduino'
p27
aS'-I/usr/share/arduino/hardware/arduino/variants/standard'
p28
aS'-I/usr/share/arduino/hardware/arduino/cores/arduino'
p29
aS'-I/usr/share/arduino/hardware/arduino/cores/arduino/avr-libc'
p30
atp31
Rp32
tp33
a(S'arduino_libraries_dir'
p34
S'/usr/share/arduino/libraries'
p35
tp36
a(S'arduino_core_dir'
p37
g9
tp38
a(S'boards.txt'
p39
S'/usr/share/arduino/hardware/arduino/boards.txt'
p40
tp41
a(S'cxxflags'
p42
g15
(g16
g17
(lp43
S'-fno-exceptions'
p44
atp45
Rp46
tp47
a(S'arduino_variants_dir'
p48
S'/usr/share/arduino/hardware/arduino/variants'
p49
tp50
a(S'avrdude'
p51
S'/usr/share/arduino/hardware/tools/avrdude'
p52
tp53
a(S'avrdude.conf'
p54
S'/usr/share/arduino/hardware/tools/avrdude.conf'
p55
tp56
a(S'names'
p57
(dp58
S'cpp'
p59
S'%s.cpp'
p60
sS'obj'
p61
S'%s.o'
p62
sS'lib'
p63
S'lib%s.a'
p64
sS'deps'
p65
S'%s.d'
p66
stp67
a(S'deps'
p68
g15
(g16
g17
(lp69
S'.build/uno/src/dependencies.d'
p70
aS'.build/uno/arduino/dependencies.d'
p71
atp72
Rp73
tp74
a(S'elfflags'
p75
g15
(g16
g17
(lp76
g23
aS'-Wl,--gc-sections'
p77
ag19
atp78
Rp79
tp80
a(S'arduino_lib_version'
p81
g15
(cino.environment
Version
p82
c__builtin__
tuple
p83
(I1
I0
tp84
tp85
Rp86
tp87
a(S'objcopy'
p88
S'/usr/share/arduino/hardware/tools/avr/bin/avr-objcopy'
p89
tp90
a(S'ar'
p91
S'/usr/share/arduino/hardware/tools/avr/bin/avr-ar'
p92
tp93
a(S'board_models'
p94
cino.environment
BoardModels
p95
((lp96
(lp97
S'uno'
p98
a(dp99
S'bootloader'
p100
(dp101
S'extended_fuses'
p102
S'0x05'
p103
sS'high_fuses'
p104
S'0xde'
p105
sS'low_fuses'
p106
S'0xff'
p107
sS'lock_bits'
p108
S'0x0F'
p109
sS'file'
p110
S'optiboot_atmega328.hex'
p111
sS'path'
p112
S'optiboot'
p113
sS'unlock_bits'
p114
S'0x3F'
p115
ssS'upload'
p116
(dp117
S'protocol'
p118
S'arduino'
p119
sS'maximum_size'
p120
S'32256'
p121
sS'speed'
p122
S'115200'
p123
ssS'build'
p124
(dp125
S'core'
p126
S'arduino'
p127
sS'mcu'
p128
S'atmega328p'
p129
sS'f_cpu'
p130
S'16000000L'
p131
sS'variant'
p132
S'standard'
p133
ssS'name'
p134
S'Arduino Uno'
p135
saa(lp136
S'atmega328'
p137
a(dp138
S'bootloader'
p139
(dp140
S'extended_fuses'
p141
S'0x05'
p142
sS'high_fuses'
p143
S'0xDA'
p144
sS'low_fuses'
p145
S'0xFF'
p146
sS'lock_bits'
p147
S'0x0F'
p148
sS'file'
p149
S'ATmegaBOOT_168_atmega328.hex'
p150
sS'path'
p151
S'atmega'
p152
sS'unlock_bits'
p153
S'0x3F'
p154
ssS'upload'
p155
(dp156
S'protocol'
p157
S'arduino'
p158
sS'maximum_size'
p159
S'30720'
p160
sS'speed'
p161
S'57600'
p162
ssS'build'
p163
(dp164
S'core'
p165
S'arduino'
p166
sS'mcu'
p167
S'atmega328p'
p168
sS'f_cpu'
p169
S'16000000L'
p170
sS'variant'
p171
S'standard'
p172
ssS'name'
p173
S'Arduino Duemilanove w/ ATmega328'
p174
saa(lp175
S'diecimila'
p176
a(dp177
S'bootloader'
p178
(dp179
S'extended_fuses'
p180
S'0x00'
p181
sS'high_fuses'
p182
S'0xdd'
p183
sS'low_fuses'
p184
S'0xff'
p185
sS'lock_bits'
p186
S'0x0F'
p187
sS'file'
p188
S'ATmegaBOOT_168_diecimila.hex'
p189
sS'path'
p190
S'atmega'
p191
sS'unlock_bits'
p192
S'0x3F'
p193
ssS'upload'
p194
(dp195
S'protocol'
p196
S'arduino'
p197
sS'maximum_size'
p198
S'14336'
p199
sS'speed'
p200
S'19200'
p201
ssS'build'
p202
(dp203
S'core'
p204
S'arduino'
p205
sS'mcu'
p206
S'atmega168'
p207
sS'f_cpu'
p208
S'16000000L'
p209
sS'variant'
p210
S'standard'
p211
ssS'name'
p212
S'Arduino Diecimila or Duemilanove w/ ATmega168'
p213
saa(lp214
S'nano328'
p215
a(dp216
S'bootloader'
p217
(dp218
S'extended_fuses'
p219
S'0x05'
p220
sS'high_fuses'
p221
S'0xDA'
p222
sS'low_fuses'
p223
S'0xFF'
p224
sS'lock_bits'
p225
S'0x0F'
p226
sS'file'
p227
S'ATmegaBOOT_168_atmega328.hex'
p228
sS'path'
p229
S'atmega'
p230
sS'unlock_bits'
p231
S'0x3F'
p232
ssS'upload'
p233
(dp234
S'protocol'
p235
S'arduino'
p236
sS'maximum_size'
p237
S'30720'
p238
sS'speed'
p239
S'57600'
p240
ssS'build'
p241
(dp242
S'core'
p243
S'arduino'
p244
sS'mcu'
p245
S'atmega328p'
p246
sS'f_cpu'
p247
S'16000000L'
p248
sS'variant'
p249
S'eightanaloginputs'
p250
ssS'name'
p251
S'Arduino Nano w/ ATmega328'
p252
saa(lp253
S'nano'
p254
a(dp255
S'bootloader'
p256
(dp257
S'extended_fuses'
p258
S'0x00'
p259
sS'high_fuses'
p260
S'0xdd'
p261
sS'low_fuses'
p262
S'0xff'
p263
sS'lock_bits'
p264
S'0x0F'
p265
sS'file'
p266
S'ATmegaBOOT_168_diecimila.hex'
p267
sS'path'
p268
S'atmega'
p269
sS'unlock_bits'
p270
S'0x3F'
p271
ssS'upload'
p272
(dp273
S'protocol'
p274
S'arduino'
p275
sS'maximum_size'
p276
S'14336'
p277
sS'speed'
p278
S'19200'
p279
ssS'build'
p280
(dp281
S'core'
p282
S'arduino'
p283
sS'mcu'
p284
S'atmega168'
p285
sS'f_cpu'
p286
S'16000000L'
p287
sS'variant'
p288
S'eightanaloginputs'
p289
ssS'name'
p290
S'Arduino Nano w/ ATmega168'
p291
saa(lp292
S'mega2560'
p293
a(dp294
S'bootloader'
p295
(dp296
S'extended_fuses'
p297
S'0xFD'
p298
sS'high_fuses'
p299
S'0xD8'
p300
sS'low_fuses'
p301
S'0xFF'
p302
sS'lock_bits'
p303
S'0x0F'
p304
sS'file'
p305
S'stk500boot_v2_mega2560.hex'
p306
sS'path'
p307
S'stk500v2'
p308
sS'unlock_bits'
p309
S'0x3F'
p310
ssS'upload'
p311
(dp312
S'protocol'
p313
S'wiring'
p314
sS'maximum_size'
p315
S'258048'
p316
sS'speed'
p317
S'115200'
p318
ssS'build'
p319
(dp320
S'core'
p321
S'arduino'
p322
sS'mcu'
p323
S'atmega2560'
p324
sS'f_cpu'
p325
S'16000000L'
p326
sS'variant'
p327
S'mega'
p328
ssS'name'
p329
S'Arduino Mega 2560 or Mega ADK'
p330
saa(lp331
S'mega'
p332
a(dp333
S'bootloader'
p334
(dp335
S'extended_fuses'
p336
S'0xF5'
p337
sS'high_fuses'
p338
S'0xDA'
p339
sS'low_fuses'
p340
S'0xFF'
p341
sS'lock_bits'
p342
S'0x0F'
p343
sS'file'
p344
S'ATmegaBOOT_168_atmega1280.hex'
p345
sS'path'
p346
S'atmega'
p347
sS'unlock_bits'
p348
S'0x3F'
p349
ssS'upload'
p350
(dp351
S'protocol'
p352
S'arduino'
p353
sS'maximum_size'
p354
S'126976'
p355
sS'speed'
p356
S'57600'
p357
ssS'build'
p358
(dp359
S'core'
p360
S'arduino'
p361
sS'mcu'
p362
S'atmega1280'
p363
sS'f_cpu'
p364
S'16000000L'
p365
sS'variant'
p366
S'mega'
p367
ssS'name'
p368
S'Arduino Mega (ATmega1280)'
p369
saa(lp370
S'leonardo'
p371
a(dp372
S'bootloader'
p373
(dp374
S'extended_fuses'
p375
S'0xcb'
p376
sS'high_fuses'
p377
S'0xd8'
p378
sS'low_fuses'
p379
S'0xff'
p380
sS'lock_bits'
p381
S'0x2F'
p382
sS'file'
p383
S'Caterina-Leonardo.hex'
p384
sS'path'
p385
S'caterina'
p386
sS'unlock_bits'
p387
S'0x3F'
p388
ssS'upload'
p389
(dp390
S'protocol'
p391
S'avr109'
p392
sS'maximum_size'
p393
S'28672'
p394
sS'speed'
p395
S'57600'
p396
sS'disable_flushing'
p397
S'true'
p398
ssS'build'
p399
(dp400
S'core'
p401
S'arduino'
p402
sS'f_cpu'
p403
S'16000000L'
p404
sS'vid'
p405
S'0x2341'
p406
sS'pid'
p407
S'0x8036'
p408
sS'variant'
p409
S'leonardo'
p410
sS'mcu'
p411
S'atmega32u4'
p412
ssS'name'
p413
S'Arduino Leonardo'
p414
saa(lp415
S'esplora'
p416
a(dp417
S'bootloader'
p418
(dp419
S'extended_fuses'
p420
S'0xcb'
p421
sS'high_fuses'
p422
S'0xd8'
p423
sS'low_fuses'
p424
S'0xff'
p425
sS'lock_bits'
p426
S'0x2F'
p427
sS'file'
p428
S'Caterina-Esplora.hex'
p429
sS'path'
p430
S'caterina'
p431
sS'unlock_bits'
p432
S'0x3F'
p433
ssS'upload'
p434
(dp435
S'protocol'
p436
S'avr109'
p437
sS'maximum_size'
p438
S'28672'
p439
sS'speed'
p440
S'57600'
p441
sS'disable_flushing'
p442
S'true'
p443
ssS'build'
p444
(dp445
S'core'
p446
S'arduino'
p447
sS'f_cpu'
p448
S'16000000L'
p449
sS'vid'
p450
S'0x2341'
p451
sS'pid'
p452
S'0x803C'
p453
sS'variant'
p454
S'leonardo'
p455
sS'mcu'
p456
S'atmega32u4'
p457
ssS'name'
p458
S'Arduino Esplora'
p459
saa(lp460
S'micro'
p461
a(dp462
S'bootloader'
p463
(dp464
S'extended_fuses'
p465
S'0xcb'
p466
sS'high_fuses'
p467
S'0xd8'
p468
sS'low_fuses'
p469
S'0xff'
p470
sS'lock_bits'
p471
S'0x2F'
p472
sS'file'
p473
S'Caterina-Micro.hex'
p474
sS'path'
p475
S'caterina'
p476
sS'unlock_bits'
p477
S'0x3F'
p478
ssS'upload'
p479
(dp480
S'protocol'
p481
S'avr109'
p482
sS'maximum_size'
p483
S'28672'
p484
sS'speed'
p485
S'57600'
p486
sS'disable_flushing'
p487
S'true'
p488
ssS'build'
p489
(dp490
S'core'
p491
S'arduino'
p492
sS'f_cpu'
p493
S'16000000L'
p494
sS'vid'
p495
S'0x2341'
p496
sS'pid'
p497
S'0x8037'
p498
sS'variant'
p499
S'micro'
p500
sS'mcu'
p501
S'atmega32u4'
p502
ssS'name'
p503
S'Arduino Micro'
p504
saa(lp505
S'mini328'
p506
a(dp507
S'bootloader'
p508
(dp509
S'extended_fuses'
p510
S'0x05'
p511
sS'high_fuses'
p512
S'0xd8'
p513
sS'low_fuses'
p514
S'0xff'
p515
sS'lock_bits'
p516
S'0x0F'
p517
sS'file'
p518
S'optiboot_atmega328-Mini.hex'
p519
sS'path'
p520
S'optiboot'
p521
sS'unlock_bits'
p522
S'0x3F'
p523
ssS'upload'
p524
(dp525
S'protocol'
p526
S'arduino'
p527
sS'maximum_size'
p528
S'28672'
p529
sS'speed'
p530
S'115200'
p531
ssS'build'
p532
(dp533
S'core'
p534
S'arduino'
p535
sS'mcu'
p536
S'atmega328p'
p537
sS'f_cpu'
p538
S'16000000L'
p539
sS'variant'
p540
S'eightanaloginputs'
p541
ssS'name'
p542
S'Arduino Mini w/ ATmega328'
p543
saa(lp544
S'mini'
p545
a(dp546
S'bootloader'
p547
(dp548
S'extended_fuses'
p549
S'0x00'
p550
sS'high_fuses'
p551
S'0xdd'
p552
sS'low_fuses'
p553
S'0xff'
p554
sS'lock_bits'
p555
S'0x0F'
p556
sS'file'
p557
S'ATmegaBOOT_168_ng.hex'
p558
sS'path'
p559
S'atmega'
p560
sS'unlock_bits'
p561
S'0x3F'
p562
ssS'upload'
p563
(dp564
S'protocol'
p565
S'arduino'
p566
sS'maximum_size'
p567
S'14336'
p568
sS'speed'
p569
S'19200'
p570
ssS'build'
p571
(dp572
S'core'
p573
S'arduino'
p574
sS'mcu'
p575
S'atmega168'
p576
sS'f_cpu'
p577
S'16000000L'
p578
sS'variant'
p579
S'eightanaloginputs'
p580
ssS'name'
p581
S'Arduino Mini w/ ATmega168'
p582
saa(lp583
S'ethernet'
p584
a(dp585
S'bootloader'
p586
(dp587
S'extended_fuses'
p588
S'0x05'
p589
sS'high_fuses'
p590
S'0xde'
p591
sS'low_fuses'
p592
S'0xff'
p593
sS'lock_bits'
p594
S'0x0F'
p595
sS'file'
p596
S'optiboot_atmega328.hex'
p597
sS'path'
p598
S'optiboot'
p599
sS'unlock_bits'
p600
S'0x3F'
p601
ssS'upload'
p602
(dp603
S'protocol'
p604
S'arduino'
p605
sS'maximum_size'
p606
S'32256'
p607
sS'speed'
p608
S'115200'
p609
ssS'build'
p610
(dp611
S'variant'
p612
S'standard'
p613
sS'mcu'
p614
S'atmega328p'
p615
sS'f_cpu'
p616
S'16000000L'
p617
sS'core'
p618
S'arduino'
p619
ssS'name'
p620
S'Arduino Ethernet'
p621
saa(lp622
S'fio'
p623
a(dp624
S'bootloader'
p625
(dp626
S'extended_fuses'
p627
S'0x05'
p628
sS'high_fuses'
p629
S'0xDA'
p630
sS'low_fuses'
p631
S'0xFF'
p632
sS'lock_bits'
p633
S'0x0F'
p634
sS'file'
p635
S'ATmegaBOOT_168_atmega328_pro_8MHz.hex'
p636
sS'path'
p637
S'arduino:atmega'
p638
sS'unlock_bits'
p639
S'0x3F'
p640
ssS'upload'
p641
(dp642
S'protocol'
p643
S'arduino'
p644
sS'maximum_size'
p645
S'30720'
p646
sS'speed'
p647
S'57600'
p648
ssS'build'
p649
(dp650
S'core'
p651
S'arduino'
p652
sS'mcu'
p653
S'atmega328p'
p654
sS'f_cpu'
p655
S'8000000L'
p656
sS'variant'
p657
S'eightanaloginputs'
p658
ssS'name'
p659
S'Arduino Fio'
p660
saa(lp661
S'bt328'
p662
a(dp663
S'bootloader'
p664
(dp665
S'extended_fuses'
p666
S'0x05'
p667
sS'high_fuses'
p668
S'0xd8'
p669
sS'low_fuses'
p670
S'0xff'
p671
sS'lock_bits'
p672
S'0x0F'
p673
sS'file'
p674
S'ATmegaBOOT_168_atmega328_bt.hex'
p675
sS'path'
p676
S'bt'
p677
sS'unlock_bits'
p678
S'0x3F'
p679
ssS'upload'
p680
(dp681
S'protocol'
p682
S'arduino'
p683
sS'maximum_size'
p684
S'28672'
p685
sS'speed'
p686
S'19200'
p687
sS'disable_flushing'
p688
S'true'
p689
ssS'build'
p690
(dp691
S'core'
p692
S'arduino'
p693
sS'mcu'
p694
S'atmega328p'
p695
sS'f_cpu'
p696
S'16000000L'
p697
sS'variant'
p698
S'eightanaloginputs'
p699
ssS'name'
p700
S'Arduino BT w/ ATmega328'
p701
saa(lp702
S'bt'
p703
a(dp704
S'bootloader'
p705
(dp706
S'extended_fuses'
p707
S'0x00'
p708
sS'high_fuses'
p709
S'0xdd'
p710
sS'low_fuses'
p711
S'0xff'
p712
sS'lock_bits'
p713
S'0x0F'
p714
sS'file'
p715
S'ATmegaBOOT_168.hex'
p716
sS'path'
p717
S'bt'
p718
sS'unlock_bits'
p719
S'0x3F'
p720
ssS'upload'
p721
(dp722
S'protocol'
p723
S'arduino'
p724
sS'maximum_size'
p725
S'14336'
p726
sS'speed'
p727
S'19200'
p728
sS'disable_flushing'
p729
S'true'
p730
ssS'build'
p731
(dp732
S'core'
p733
S'arduino'
p734
sS'mcu'
p735
S'atmega168'
p736
sS'f_cpu'
p737
S'16000000L'
p738
sS'variant'
p739
S'eightanaloginputs'
p740
ssS'name'
p741
S'Arduino BT w/ ATmega168'
p742
saa(lp743
S'LilyPadUSB'
p744
a(dp745
S'bootloader'
p746
(dp747
S'extended_fuses'
p748
S'0xce'
p749
sS'high_fuses'
p750
S'0xd8'
p751
sS'low_fuses'
p752
S'0xff'
p753
sS'lock_bits'
p754
S'0x2F'
p755
sS'file'
p756
S'Caterina-LilyPadUSB.hex'
p757
sS'path'
p758
S'caterina-LilyPadUSB'
p759
sS'unlock_bits'
p760
S'0x3F'
p761
ssS'upload'
p762
(dp763
S'protocol'
p764
S'avr109'
p765
sS'maximum_size'
p766
S'28672'
p767
sS'speed'
p768
S'57600'
p769
sS'disable_flushing'
p770
S'true'
p771
ssS'build'
p772
(dp773
S'core'
p774
S'arduino'
p775
sS'f_cpu'
p776
S'8000000L'
p777
sS'vid'
p778
S'0x1B4F'
p779
sS'pid'
p780
S'0x9208'
p781
sS'variant'
p782
S'leonardo'
p783
sS'mcu'
p784
S'atmega32u4'
p785
ssS'name'
p786
S'LilyPad Arduino USB'
p787
saa(lp788
S'lilypad328'
p789
a(dp790
S'bootloader'
p791
(dp792
S'extended_fuses'
p793
S'0x05'
p794
sS'high_fuses'
p795
S'0xDA'
p796
sS'low_fuses'
p797
S'0xFF'
p798
sS'lock_bits'
p799
S'0x0F'
p800
sS'file'
p801
S'ATmegaBOOT_168_atmega328_pro_8MHz.hex'
p802
sS'path'
p803
S'atmega'
p804
sS'unlock_bits'
p805
S'0x3F'
p806
ssS'upload'
p807
(dp808
S'protocol'
p809
S'arduino'
p810
sS'maximum_size'
p811
S'30720'
p812
sS'speed'
p813
S'57600'
p814
ssS'build'
p815
(dp816
S'core'
p817
S'arduino'
p818
sS'mcu'
p819
S'atmega328p'
p820
sS'f_cpu'
p821
S'8000000L'
p822
sS'variant'
p823
S'standard'
p824
ssS'name'
p825
S'LilyPad Arduino w/ ATmega328'
p826
saa(lp827
S'lilypad'
p828
a(dp829
S'bootloader'
p830
(dp831
S'extended_fuses'
p832
S'0x00'
p833
sS'high_fuses'
p834
S'0xdd'
p835
sS'low_fuses'
p836
S'0xe2'
p837
sS'lock_bits'
p838
S'0x0F'
p839
sS'file'
p840
S'LilyPadBOOT_168.hex'
p841
sS'path'
p842
S'lilypad'
p843
sS'unlock_bits'
p844
S'0x3F'
p845
ssS'upload'
p846
(dp847
S'protocol'
p848
S'arduino'
p849
sS'maximum_size'
p850
S'14336'
p851
sS'speed'
p852
S'19200'
p853
ssS'build'
p854
(dp855
S'core'
p856
S'arduino'
p857
sS'mcu'
p858
S'atmega168'
p859
sS'f_cpu'
p860
S'8000000L'
p861
sS'variant'
p862
S'standard'
p863
ssS'name'
p864
S'LilyPad Arduino w/ ATmega168'
p865
saa(lp866
S'pro5v328'
p867
a(dp868
S'bootloader'
p869
(dp870
S'extended_fuses'
p871
S'0x05'
p872
sS'high_fuses'
p873
S'0xDA'
p874
sS'low_fuses'
p875
S'0xFF'
p876
sS'lock_bits'
p877
S'0x0F'
p878
sS'file'
p879
S'ATmegaBOOT_168_atmega328.hex'
p880
sS'path'
p881
S'atmega'
p882
sS'unlock_bits'
p883
S'0x3F'
p884
ssS'upload'
p885
(dp886
S'protocol'
p887
S'arduino'
p888
sS'maximum_size'
p889
S'30720'
p890
sS'speed'
p891
S'57600'
p892
ssS'build'
p893
(dp894
S'core'
p895
S'arduino'
p896
sS'mcu'
p897
S'atmega328p'
p898
sS'f_cpu'
p899
S'16000000L'
p900
sS'variant'
p901
S'standard'
p902
ssS'name'
p903
S'Arduino Pro or Pro Mini (5V, 16 MHz) w/ ATmega328'
p904
saa(lp905
S'pro5v'
p906
a(dp907
S'bootloader'
p908
(dp909
S'extended_fuses'
p910
S'0x00'
p911
sS'high_fuses'
p912
S'0xdd'
p913
sS'low_fuses'
p914
S'0xff'
p915
sS'lock_bits'
p916
S'0x0F'
p917
sS'file'
p918
S'ATmegaBOOT_168_diecimila.hex'
p919
sS'path'
p920
S'atmega'
p921
sS'unlock_bits'
p922
S'0x3F'
p923
ssS'upload'
p924
(dp925
S'protocol'
p926
S'arduino'
p927
sS'maximum_size'
p928
S'14336'
p929
sS'speed'
p930
S'19200'
p931
ssS'build'
p932
(dp933
S'core'
p934
S'arduino'
p935
sS'mcu'
p936
S'atmega168'
p937
sS'f_cpu'
p938
S'16000000L'
p939
sS'variant'
p940
S'standard'
p941
ssS'name'
p942
S'Arduino Pro or Pro Mini (5V, 16 MHz) w/ ATmega168'
p943
saa(lp944
S'pro328'
p945
a(dp946
S'bootloader'
p947
(dp948
S'extended_fuses'
p949
S'0x05'
p950
sS'high_fuses'
p951
S'0xDA'
p952
sS'low_fuses'
p953
S'0xFF'
p954
sS'lock_bits'
p955
S'0x0F'
p956
sS'file'
p957
S'ATmegaBOOT_168_atmega328_pro_8MHz.hex'
p958
sS'path'
p959
S'atmega'
p960
sS'unlock_bits'
p961
S'0x3F'
p962
ssS'upload'
p963
(dp964
S'protocol'
p965
S'arduino'
p966
sS'maximum_size'
p967
S'30720'
p968
sS'speed'
p969
S'57600'
p970
ssS'build'
p971
(dp972
S'core'
p973
S'arduino'
p974
sS'mcu'
p975
S'atmega328p'
p976
sS'f_cpu'
p977
S'8000000L'
p978
sS'variant'
p979
S'standard'
p980
ssS'name'
p981
S'Arduino Pro or Pro Mini (3.3V, 8 MHz) w/ ATmega328'
p982
saa(lp983
S'pro'
p984
a(dp985
S'bootloader'
p986
(dp987
S'extended_fuses'
p988
S'0x00'
p989
sS'high_fuses'
p990
S'0xdd'
p991
sS'low_fuses'
p992
S'0xc6'
p993
sS'lock_bits'
p994
S'0x0F'
p995
sS'file'
p996
S'ATmegaBOOT_168_pro_8MHz.hex'
p997
sS'path'
p998
S'atmega'
p999
sS'unlock_bits'
p1000
S'0x3F'
p1001
ssS'upload'
p1002
(dp1003
S'protocol'
p1004
S'arduino'
p1005
sS'maximum_size'
p1006
S'14336'
p1007
sS'speed'
p1008
S'19200'
p1009
ssS'build'
p1010
(dp1011
S'core'
p1012
S'arduino'
p1013
sS'mcu'
p1014
S'atmega168'
p1015
sS'f_cpu'
p1016
S'8000000L'
p1017
sS'variant'
p1018
S'standard'
p1019
ssS'name'
p1020
S'Arduino Pro or Pro Mini (3.3V, 8 MHz) w/ ATmega168'
p1021
saa(lp1022
S'atmega168'
p1023
a(dp1024
S'bootloader'
p1025
(dp1026
S'extended_fuses'
p1027
S'0x00'
p1028
sS'high_fuses'
p1029
S'0xdd'
p1030
sS'low_fuses'
p1031
S'0xff'
p1032
sS'lock_bits'
p1033
S'0x0F'
p1034
sS'file'
p1035
S'ATmegaBOOT_168_ng.hex'
p1036
sS'path'
p1037
S'atmega'
p1038
sS'unlock_bits'
p1039
S'0x3F'
p1040
ssS'upload'
p1041
(dp1042
S'protocol'
p1043
S'arduino'
p1044
sS'maximum_size'
p1045
S'14336'
p1046
sS'speed'
p1047
S'19200'
p1048
ssS'build'
p1049
(dp1050
S'core'
p1051
S'arduino'
p1052
sS'mcu'
p1053
S'atmega168'
p1054
sS'f_cpu'
p1055
S'16000000L'
p1056
sS'variant'
p1057
S'standard'
p1058
ssS'name'
p1059
S'Arduino NG or older w/ ATmega168'
p1060
saa(lp1061
S'atmega8'
p1062
a(dp1063
S'bootloader'
p1064
(dp1065
S'high_fuses'
p1066
S'0xca'
p1067
sS'low_fuses'
p1068
S'0xdf'
p1069
sS'lock_bits'
p1070
S'0x0F'
p1071
sS'file'
p1072
S'ATmegaBOOT-prod-firmware-2009-11-07.hex'
p1073
sS'path'
p1074
S'atmega8'
p1075
sS'unlock_bits'
p1076
S'0x3F'
p1077
ssS'upload'
p1078
(dp1079
S'protocol'
p1080
S'arduino'
p1081
sS'maximum_size'
p1082
S'7168'
p1083
sS'speed'
p1084
S'19200'
p1085
ssS'build'
p1086
(dp1087
S'core'
p1088
S'arduino'
p1089
sS'mcu'
p1090
S'atmega8'
p1091
sS'f_cpu'
p1092
S'16000000L'
p1093
sS'variant'
p1094
S'standard'
p1095
ssS'name'
p1096
S'Arduino NG or older w/ ATmega8'
p1097
saa(lp1098
S'robotControl'
p1099
a(dp1100
S'bootloader'
p1101
(dp1102
S'extended_fuses'
p1103
S'0xcb'
p1104
sS'high_fuses'
p1105
S'0xd8'
p1106
sS'low_fuses'
p1107
S'0xff'
p1108
sS'lock_bits'
p1109
S'0x2F'
p1110
sS'file'
p1111
S'Caterina-Robot-Control.hex'
p1112
sS'path'
p1113
S'caterina-Arduino_Robot'
p1114
sS'unlock_bits'
p1115
S'0x3F'
p1116
ssS'upload'
p1117
(dp1118
S'protocol'
p1119
S'avr109'
p1120
sS'maximum_size'
p1121
S'28672'
p1122
sS'speed'
p1123
S'57600'
p1124
sS'disable_flushing'
p1125
S'true'
p1126
ssS'build'
p1127
(dp1128
S'core'
p1129
S'robot'
p1130
sS'f_cpu'
p1131
S'16000000L'
p1132
sS'vid'
p1133
S'0x2341'
p1134
sS'pid'
p1135
S'0x8038'
p1136
sS'variant'
p1137
S'robot_control'
p1138
sS'mcu'
p1139
S'atmega32u4'
p1140
ssS'name'
p1141
S'Arduino Robot Control'
p1142
saa(lp1143
S'robotMotor'
p1144
a(dp1145
S'bootloader'
p1146
(dp1147
S'extended_fuses'
p1148
S'0xcb'
p1149
sS'high_fuses'
p1150
S'0xd8'
p1151
sS'low_fuses'
p1152
S'0xff'
p1153
sS'lock_bits'
p1154
S'0x2F'
p1155
sS'file'
p1156
S'Caterina-Robot-Motor.hex'
p1157
sS'path'
p1158
S'caterina-Arduino_Robot'
p1159
sS'unlock_bits'
p1160
S'0x3F'
p1161
ssS'upload'
p1162
(dp1163
S'protocol'
p1164
S'avr109'
p1165
sS'maximum_size'
p1166
S'28672'
p1167
sS'speed'
p1168
S'57600'
p1169
sS'disable_flushing'
p1170
S'true'
p1171
ssS'build'
p1172
(dp1173
S'core'
p1174
S'robot'
p1175
sS'f_cpu'
p1176
S'16000000L'
p1177
sS'vid'
p1178
S'0x2341'
p1179
sS'pid'
p1180
S'0x8039'
p1181
sS'variant'
p1182
S'robot_motor'
p1183
sS'mcu'
p1184
S'atmega32u4'
p1185
ssS'name'
p1186
S'Arduino Robot Motor'
p1187
saatp1188
Rp1189
(dp1190
S'default'
p1191
S'uno'
p1192
sbtp1193
a(S'cxx'
p1194
S'/usr/share/arduino/hardware/tools/avr/bin/avr-g++'
p1195
tp1196
a(S'build_dir'
p1197
S'.build/uno'
p1198
tp1199
a.