(lp0
(S'cppflags'
p1
ccopy_reg
_reconstructor
p2
(cino.utils
SpaceList
p3
c__builtin__
list
p4
(lp5
S'-mmcu=atmega328p'
p6
aS'-DF_CPU=16000000L'
p7
aS'-DARDUINO=105'
p8
aS'-I/usr/share/arduino/hardware/arduino/cores/arduino'
p9
aS'-ffunction-sections'
p10
aS'-fdata-sections'
p11
aS'-g'
p12
aS'-Os'
p13
aS'-w'
p14
aS'-I/usr/share/arduino/hardware/arduino/variants/standard'
p15
aS'-Ilib/MIDI'
p16
aS'-Ilib/MIDI/doc'
p17
aS'-Ilib/MIDI/doc/html'
p18
aS'-I/usr/share/arduino/hardware/arduino/cores/arduino'
p19
aS'-I/usr/share/arduino/hardware/arduino/cores/arduino/avr-libc'
p20
atp21
Rp22
tp23
a(S'arduino_variants_dir'
p24
S'/usr/share/arduino/hardware/arduino/variants'
p25
tp26
a(S'version.txt'
p27
S'/usr/share/arduino/lib/version.txt'
p28
tp29
a(S'used_libs'
p30
(lp31
S'lib/MIDI'
p32
aS'/usr/share/arduino/hardware/arduino/cores/arduino'
p33
atp34
a(S'cxx'
p35
S'/usr/share/arduino/hardware/tools/avr/bin/avr-g++'
p36
tp37
a(S'make'
p38
S'/usr/bin/make'
p39
tp40
a(S'build_dir'
p41
S'.build/uno'
p42
tp43
a(S'arduino_core_dir'
p44
g33
tp45
a(S'boards.txt'
p46
S'/usr/share/arduino/hardware/arduino/boards.txt'
p47
tp48
a(S'cxxflags'
p49
g2
(g3
g4
(lp50
S'-fno-exceptions'
p51
atp52
Rp53
tp54
a(S'cc'
p55
S'/usr/bin/avr-gcc'
p56
tp57
a(S'deps'
p58
g2
(g3
g4
(lp59
S'.build/uno/src/dependencies.d'
p60
aS'.build/uno/arduino/dependencies.d'
p61
aS'.build/uno/MIDI/dependencies.d'
p62
atp63
Rp64
tp65
a(S'ar'
p66
S'/usr/bin/avr-ar'
p67
tp68
a(S'names'
p69
(dp70
S'cpp'
p71
S'%s.cpp'
p72
sS'obj'
p73
S'%s.o'
p74
sS'deps'
p75
S'%s.d'
p76
sS'lib'
p77
S'lib%s.a'
p78
stp79
a(S'cflags'
p80
g2
(g3
g4
(lp81
tp82
Rp83
tp84
a(S'arduino_libraries_dir'
p85
S'/usr/share/arduino/libraries'
p86
tp87
a(S'arduino_lib_version'
p88
g2
(cino.environment
Version
p89
c__builtin__
tuple
p90
(I1
I0
I5
tp91
tp92
Rp93
tp94
a(S'objcopy'
p95
S'/usr/bin/avr-objcopy'
p96
tp97
a(S'board_models'
p98
cino.environment
BoardModels
p99
((lp100
(lp101
S'uno'
p102
a(dp103
S'bootloader'
p104
(dp105
S'extended_fuses'
p106
S'0x05'
p107
sS'high_fuses'
p108
S'0xde'
p109
sS'low_fuses'
p110
S'0xff'
p111
sS'lock_bits'
p112
S'0x0F'
p113
sS'file'
p114
S'optiboot_atmega328.hex'
p115
sS'path'
p116
S'optiboot'
p117
sS'unlock_bits'
p118
S'0x3F'
p119
ssS'upload'
p120
(dp121
S'speed'
p122
S'115200'
p123
sS'maximum_size'
p124
S'32256'
p125
sS'protocol'
p126
S'arduino'
p127
ssS'name'
p128
S'Arduino Uno'
p129
sS'build'
p130
(dp131
S'core'
p132
S'arduino'
p133
sS'mcu'
p134
S'atmega328p'
p135
sS'f_cpu'
p136
S'16000000L'
p137
sS'variant'
p138
S'standard'
p139
ssaa(lp140
S'atmega328'
p141
a(dp142
S'bootloader'
p143
(dp144
S'extended_fuses'
p145
S'0x05'
p146
sS'high_fuses'
p147
S'0xDA'
p148
sS'low_fuses'
p149
S'0xFF'
p150
sS'lock_bits'
p151
S'0x0F'
p152
sS'file'
p153
S'ATmegaBOOT_168_atmega328.hex'
p154
sS'path'
p155
S'atmega'
p156
sS'unlock_bits'
p157
S'0x3F'
p158
ssS'upload'
p159
(dp160
S'speed'
p161
S'57600'
p162
sS'maximum_size'
p163
S'30720'
p164
sS'protocol'
p165
S'arduino'
p166
ssS'name'
p167
S'Arduino Duemilanove w/ ATmega328'
p168
sS'build'
p169
(dp170
S'core'
p171
S'arduino'
p172
sS'mcu'
p173
S'atmega328p'
p174
sS'f_cpu'
p175
S'16000000L'
p176
sS'variant'
p177
S'standard'
p178
ssaa(lp179
S'diecimila'
p180
a(dp181
S'bootloader'
p182
(dp183
S'extended_fuses'
p184
S'0x00'
p185
sS'high_fuses'
p186
S'0xdd'
p187
sS'low_fuses'
p188
S'0xff'
p189
sS'lock_bits'
p190
S'0x0F'
p191
sS'file'
p192
S'ATmegaBOOT_168_diecimila.hex'
p193
sS'path'
p194
S'atmega'
p195
sS'unlock_bits'
p196
S'0x3F'
p197
ssS'upload'
p198
(dp199
S'speed'
p200
S'19200'
p201
sS'maximum_size'
p202
S'14336'
p203
sS'protocol'
p204
S'arduino'
p205
ssS'name'
p206
S'Arduino Diecimila or Duemilanove w/ ATmega168'
p207
sS'build'
p208
(dp209
S'core'
p210
S'arduino'
p211
sS'mcu'
p212
S'atmega168'
p213
sS'f_cpu'
p214
S'16000000L'
p215
sS'variant'
p216
S'standard'
p217
ssaa(lp218
S'nano328'
p219
a(dp220
S'bootloader'
p221
(dp222
S'extended_fuses'
p223
S'0x05'
p224
sS'high_fuses'
p225
S'0xDA'
p226
sS'low_fuses'
p227
S'0xFF'
p228
sS'lock_bits'
p229
S'0x0F'
p230
sS'file'
p231
S'ATmegaBOOT_168_atmega328.hex'
p232
sS'path'
p233
S'atmega'
p234
sS'unlock_bits'
p235
S'0x3F'
p236
ssS'upload'
p237
(dp238
S'speed'
p239
S'57600'
p240
sS'maximum_size'
p241
S'30720'
p242
sS'protocol'
p243
S'arduino'
p244
ssS'name'
p245
S'Arduino Nano w/ ATmega328'
p246
sS'build'
p247
(dp248
S'core'
p249
S'arduino'
p250
sS'mcu'
p251
S'atmega328p'
p252
sS'f_cpu'
p253
S'16000000L'
p254
sS'variant'
p255
S'eightanaloginputs'
p256
ssaa(lp257
S'nano'
p258
a(dp259
S'bootloader'
p260
(dp261
S'extended_fuses'
p262
S'0x00'
p263
sS'high_fuses'
p264
S'0xdd'
p265
sS'low_fuses'
p266
S'0xff'
p267
sS'lock_bits'
p268
S'0x0F'
p269
sS'file'
p270
S'ATmegaBOOT_168_diecimila.hex'
p271
sS'path'
p272
S'atmega'
p273
sS'unlock_bits'
p274
S'0x3F'
p275
ssS'upload'
p276
(dp277
S'speed'
p278
S'19200'
p279
sS'maximum_size'
p280
S'14336'
p281
sS'protocol'
p282
S'arduino'
p283
ssS'name'
p284
S'Arduino Nano w/ ATmega168'
p285
sS'build'
p286
(dp287
S'core'
p288
S'arduino'
p289
sS'mcu'
p290
S'atmega168'
p291
sS'f_cpu'
p292
S'16000000L'
p293
sS'variant'
p294
S'eightanaloginputs'
p295
ssaa(lp296
S'mega2560'
p297
a(dp298
S'bootloader'
p299
(dp300
S'extended_fuses'
p301
S'0xFD'
p302
sS'high_fuses'
p303
S'0xD8'
p304
sS'low_fuses'
p305
S'0xFF'
p306
sS'lock_bits'
p307
S'0x0F'
p308
sS'file'
p309
S'stk500boot_v2_mega2560.hex'
p310
sS'path'
p311
S'stk500v2'
p312
sS'unlock_bits'
p313
S'0x3F'
p314
ssS'upload'
p315
(dp316
S'speed'
p317
S'115200'
p318
sS'maximum_size'
p319
S'258048'
p320
sS'protocol'
p321
S'wiring'
p322
ssS'name'
p323
S'Arduino Mega 2560 or Mega ADK'
p324
sS'build'
p325
(dp326
S'core'
p327
S'arduino'
p328
sS'mcu'
p329
S'atmega2560'
p330
sS'f_cpu'
p331
S'16000000L'
p332
sS'variant'
p333
S'mega'
p334
ssaa(lp335
S'mega'
p336
a(dp337
S'bootloader'
p338
(dp339
S'extended_fuses'
p340
S'0xF5'
p341
sS'high_fuses'
p342
S'0xDA'
p343
sS'low_fuses'
p344
S'0xFF'
p345
sS'lock_bits'
p346
S'0x0F'
p347
sS'file'
p348
S'ATmegaBOOT_168_atmega1280.hex'
p349
sS'path'
p350
S'atmega'
p351
sS'unlock_bits'
p352
S'0x3F'
p353
ssS'upload'
p354
(dp355
S'speed'
p356
S'57600'
p357
sS'maximum_size'
p358
S'126976'
p359
sS'protocol'
p360
S'arduino'
p361
ssS'name'
p362
S'Arduino Mega (ATmega1280)'
p363
sS'build'
p364
(dp365
S'core'
p366
S'arduino'
p367
sS'mcu'
p368
S'atmega1280'
p369
sS'f_cpu'
p370
S'16000000L'
p371
sS'variant'
p372
S'mega'
p373
ssaa(lp374
S'leonardo'
p375
a(dp376
S'bootloader'
p377
(dp378
S'extended_fuses'
p379
S'0xcb'
p380
sS'high_fuses'
p381
S'0xd8'
p382
sS'low_fuses'
p383
S'0xff'
p384
sS'lock_bits'
p385
S'0x2F'
p386
sS'file'
p387
S'Caterina-Leonardo.hex'
p388
sS'path'
p389
S'caterina'
p390
sS'unlock_bits'
p391
S'0x3F'
p392
ssS'upload'
p393
(dp394
S'speed'
p395
S'57600'
p396
sS'maximum_size'
p397
S'28672'
p398
sS'protocol'
p399
S'avr109'
p400
sS'disable_flushing'
p401
S'true'
p402
ssS'name'
p403
S'Arduino Leonardo'
p404
sS'build'
p405
(dp406
S'core'
p407
S'arduino'
p408
sS'f_cpu'
p409
S'16000000L'
p410
sS'vid'
p411
S'0x2341'
p412
sS'pid'
p413
S'0x8036'
p414
sS'variant'
p415
S'leonardo'
p416
sS'mcu'
p417
S'atmega32u4'
p418
ssaa(lp419
S'esplora'
p420
a(dp421
S'bootloader'
p422
(dp423
S'extended_fuses'
p424
S'0xcb'
p425
sS'high_fuses'
p426
S'0xd8'
p427
sS'low_fuses'
p428
S'0xff'
p429
sS'lock_bits'
p430
S'0x2F'
p431
sS'file'
p432
S'Caterina-Esplora.hex'
p433
sS'path'
p434
S'caterina'
p435
sS'unlock_bits'
p436
S'0x3F'
p437
ssS'upload'
p438
(dp439
S'speed'
p440
S'57600'
p441
sS'maximum_size'
p442
S'28672'
p443
sS'protocol'
p444
S'avr109'
p445
sS'disable_flushing'
p446
S'true'
p447
ssS'name'
p448
S'Arduino Esplora'
p449
sS'build'
p450
(dp451
S'core'
p452
S'arduino'
p453
sS'f_cpu'
p454
S'16000000L'
p455
sS'vid'
p456
S'0x2341'
p457
sS'pid'
p458
S'0x803C'
p459
sS'variant'
p460
S'leonardo'
p461
sS'mcu'
p462
S'atmega32u4'
p463
ssaa(lp464
S'micro'
p465
a(dp466
S'bootloader'
p467
(dp468
S'extended_fuses'
p469
S'0xcb'
p470
sS'high_fuses'
p471
S'0xd8'
p472
sS'low_fuses'
p473
S'0xff'
p474
sS'lock_bits'
p475
S'0x2F'
p476
sS'file'
p477
S'Caterina-Micro.hex'
p478
sS'path'
p479
S'caterina'
p480
sS'unlock_bits'
p481
S'0x3F'
p482
ssS'upload'
p483
(dp484
S'speed'
p485
S'57600'
p486
sS'maximum_size'
p487
S'28672'
p488
sS'protocol'
p489
S'avr109'
p490
sS'disable_flushing'
p491
S'true'
p492
ssS'name'
p493
S'Arduino Micro'
p494
sS'build'
p495
(dp496
S'core'
p497
S'arduino'
p498
sS'f_cpu'
p499
S'16000000L'
p500
sS'vid'
p501
S'0x2341'
p502
sS'pid'
p503
S'0x8037'
p504
sS'variant'
p505
S'micro'
p506
sS'mcu'
p507
S'atmega32u4'
p508
ssaa(lp509
S'mini328'
p510
a(dp511
S'bootloader'
p512
(dp513
S'extended_fuses'
p514
S'0x05'
p515
sS'high_fuses'
p516
S'0xd8'
p517
sS'low_fuses'
p518
S'0xff'
p519
sS'lock_bits'
p520
S'0x0F'
p521
sS'file'
p522
S'optiboot_atmega328-Mini.hex'
p523
sS'path'
p524
S'optiboot'
p525
sS'unlock_bits'
p526
S'0x3F'
p527
ssS'upload'
p528
(dp529
S'speed'
p530
S'115200'
p531
sS'maximum_size'
p532
S'28672'
p533
sS'protocol'
p534
S'arduino'
p535
ssS'name'
p536
S'Arduino Mini w/ ATmega328'
p537
sS'build'
p538
(dp539
S'core'
p540
S'arduino'
p541
sS'mcu'
p542
S'atmega328p'
p543
sS'f_cpu'
p544
S'16000000L'
p545
sS'variant'
p546
S'eightanaloginputs'
p547
ssaa(lp548
S'mini'
p549
a(dp550
S'bootloader'
p551
(dp552
S'extended_fuses'
p553
S'0x00'
p554
sS'high_fuses'
p555
S'0xdd'
p556
sS'low_fuses'
p557
S'0xff'
p558
sS'lock_bits'
p559
S'0x0F'
p560
sS'file'
p561
S'ATmegaBOOT_168_ng.hex'
p562
sS'path'
p563
S'atmega'
p564
sS'unlock_bits'
p565
S'0x3F'
p566
ssS'upload'
p567
(dp568
S'speed'
p569
S'19200'
p570
sS'maximum_size'
p571
S'14336'
p572
sS'protocol'
p573
S'arduino'
p574
ssS'name'
p575
S'Arduino Mini w/ ATmega168'
p576
sS'build'
p577
(dp578
S'core'
p579
S'arduino'
p580
sS'mcu'
p581
S'atmega168'
p582
sS'f_cpu'
p583
S'16000000L'
p584
sS'variant'
p585
S'eightanaloginputs'
p586
ssaa(lp587
S'ethernet'
p588
a(dp589
S'bootloader'
p590
(dp591
S'extended_fuses'
p592
S'0x05'
p593
sS'high_fuses'
p594
S'0xde'
p595
sS'low_fuses'
p596
S'0xff'
p597
sS'lock_bits'
p598
S'0x0F'
p599
sS'file'
p600
S'optiboot_atmega328.hex'
p601
sS'path'
p602
S'optiboot'
p603
sS'unlock_bits'
p604
S'0x3F'
p605
ssS'upload'
p606
(dp607
S'speed'
p608
S'115200'
p609
sS'maximum_size'
p610
S'32256'
p611
sS'protocol'
p612
S'arduino'
p613
ssS'name'
p614
S'Arduino Ethernet'
p615
sS'build'
p616
(dp617
S'f_cpu'
p618
S'16000000L'
p619
sS'mcu'
p620
S'atmega328p'
p621
sS'variant'
p622
S'standard'
p623
sS'core'
p624
S'arduino'
p625
ssaa(lp626
S'fio'
p627
a(dp628
S'bootloader'
p629
(dp630
S'extended_fuses'
p631
S'0x05'
p632
sS'high_fuses'
p633
S'0xDA'
p634
sS'low_fuses'
p635
S'0xFF'
p636
sS'lock_bits'
p637
S'0x0F'
p638
sS'file'
p639
S'ATmegaBOOT_168_atmega328_pro_8MHz.hex'
p640
sS'path'
p641
S'arduino:atmega'
p642
sS'unlock_bits'
p643
S'0x3F'
p644
ssS'upload'
p645
(dp646
S'speed'
p647
S'57600'
p648
sS'maximum_size'
p649
S'30720'
p650
sS'protocol'
p651
S'arduino'
p652
ssS'name'
p653
S'Arduino Fio'
p654
sS'build'
p655
(dp656
S'core'
p657
S'arduino'
p658
sS'mcu'
p659
S'atmega328p'
p660
sS'f_cpu'
p661
S'8000000L'
p662
sS'variant'
p663
S'eightanaloginputs'
p664
ssaa(lp665
S'bt328'
p666
a(dp667
S'bootloader'
p668
(dp669
S'extended_fuses'
p670
S'0x05'
p671
sS'high_fuses'
p672
S'0xd8'
p673
sS'low_fuses'
p674
S'0xff'
p675
sS'lock_bits'
p676
S'0x0F'
p677
sS'file'
p678
S'ATmegaBOOT_168_atmega328_bt.hex'
p679
sS'path'
p680
S'bt'
p681
sS'unlock_bits'
p682
S'0x3F'
p683
ssS'upload'
p684
(dp685
S'speed'
p686
S'19200'
p687
sS'maximum_size'
p688
S'28672'
p689
sS'protocol'
p690
S'arduino'
p691
sS'disable_flushing'
p692
S'true'
p693
ssS'name'
p694
S'Arduino BT w/ ATmega328'
p695
sS'build'
p696
(dp697
S'core'
p698
S'arduino'
p699
sS'mcu'
p700
S'atmega328p'
p701
sS'f_cpu'
p702
S'16000000L'
p703
sS'variant'
p704
S'eightanaloginputs'
p705
ssaa(lp706
S'bt'
p707
a(dp708
S'bootloader'
p709
(dp710
S'extended_fuses'
p711
S'0x00'
p712
sS'high_fuses'
p713
S'0xdd'
p714
sS'low_fuses'
p715
S'0xff'
p716
sS'lock_bits'
p717
S'0x0F'
p718
sS'file'
p719
S'ATmegaBOOT_168.hex'
p720
sS'path'
p721
S'bt'
p722
sS'unlock_bits'
p723
S'0x3F'
p724
ssS'upload'
p725
(dp726
S'speed'
p727
S'19200'
p728
sS'maximum_size'
p729
S'14336'
p730
sS'protocol'
p731
S'arduino'
p732
sS'disable_flushing'
p733
S'true'
p734
ssS'name'
p735
S'Arduino BT w/ ATmega168'
p736
sS'build'
p737
(dp738
S'core'
p739
S'arduino'
p740
sS'mcu'
p741
S'atmega168'
p742
sS'f_cpu'
p743
S'16000000L'
p744
sS'variant'
p745
S'eightanaloginputs'
p746
ssaa(lp747
S'LilyPadUSB'
p748
a(dp749
S'bootloader'
p750
(dp751
S'extended_fuses'
p752
S'0xce'
p753
sS'high_fuses'
p754
S'0xd8'
p755
sS'low_fuses'
p756
S'0xff'
p757
sS'lock_bits'
p758
S'0x2F'
p759
sS'file'
p760
S'Caterina-LilyPadUSB.hex'
p761
sS'path'
p762
S'caterina-LilyPadUSB'
p763
sS'unlock_bits'
p764
S'0x3F'
p765
ssS'upload'
p766
(dp767
S'speed'
p768
S'57600'
p769
sS'maximum_size'
p770
S'28672'
p771
sS'protocol'
p772
S'avr109'
p773
sS'disable_flushing'
p774
S'true'
p775
ssS'name'
p776
S'LilyPad Arduino USB'
p777
sS'build'
p778
(dp779
S'core'
p780
S'arduino'
p781
sS'f_cpu'
p782
S'8000000L'
p783
sS'vid'
p784
S'0x1B4F'
p785
sS'pid'
p786
S'0x9208'
p787
sS'variant'
p788
S'leonardo'
p789
sS'mcu'
p790
S'atmega32u4'
p791
ssaa(lp792
S'lilypad328'
p793
a(dp794
S'bootloader'
p795
(dp796
S'extended_fuses'
p797
S'0x05'
p798
sS'high_fuses'
p799
S'0xDA'
p800
sS'low_fuses'
p801
S'0xFF'
p802
sS'lock_bits'
p803
S'0x0F'
p804
sS'file'
p805
S'ATmegaBOOT_168_atmega328_pro_8MHz.hex'
p806
sS'path'
p807
S'atmega'
p808
sS'unlock_bits'
p809
S'0x3F'
p810
ssS'upload'
p811
(dp812
S'speed'
p813
S'57600'
p814
sS'maximum_size'
p815
S'30720'
p816
sS'protocol'
p817
S'arduino'
p818
ssS'name'
p819
S'LilyPad Arduino w/ ATmega328'
p820
sS'build'
p821
(dp822
S'core'
p823
S'arduino'
p824
sS'mcu'
p825
S'atmega328p'
p826
sS'f_cpu'
p827
S'8000000L'
p828
sS'variant'
p829
S'standard'
p830
ssaa(lp831
S'lilypad'
p832
a(dp833
S'bootloader'
p834
(dp835
S'extended_fuses'
p836
S'0x00'
p837
sS'high_fuses'
p838
S'0xdd'
p839
sS'low_fuses'
p840
S'0xe2'
p841
sS'lock_bits'
p842
S'0x0F'
p843
sS'file'
p844
S'LilyPadBOOT_168.hex'
p845
sS'path'
p846
S'lilypad'
p847
sS'unlock_bits'
p848
S'0x3F'
p849
ssS'upload'
p850
(dp851
S'speed'
p852
S'19200'
p853
sS'maximum_size'
p854
S'14336'
p855
sS'protocol'
p856
S'arduino'
p857
ssS'name'
p858
S'LilyPad Arduino w/ ATmega168'
p859
sS'build'
p860
(dp861
S'core'
p862
S'arduino'
p863
sS'mcu'
p864
S'atmega168'
p865
sS'f_cpu'
p866
S'8000000L'
p867
sS'variant'
p868
S'standard'
p869
ssaa(lp870
S'pro5v328'
p871
a(dp872
S'bootloader'
p873
(dp874
S'extended_fuses'
p875
S'0x05'
p876
sS'high_fuses'
p877
S'0xDA'
p878
sS'low_fuses'
p879
S'0xFF'
p880
sS'lock_bits'
p881
S'0x0F'
p882
sS'file'
p883
S'ATmegaBOOT_168_atmega328.hex'
p884
sS'path'
p885
S'atmega'
p886
sS'unlock_bits'
p887
S'0x3F'
p888
ssS'upload'
p889
(dp890
S'speed'
p891
S'57600'
p892
sS'maximum_size'
p893
S'30720'
p894
sS'protocol'
p895
S'arduino'
p896
ssS'name'
p897
S'Arduino Pro or Pro Mini (5V, 16 MHz) w/ ATmega328'
p898
sS'build'
p899
(dp900
S'core'
p901
S'arduino'
p902
sS'mcu'
p903
S'atmega328p'
p904
sS'f_cpu'
p905
S'16000000L'
p906
sS'variant'
p907
S'standard'
p908
ssaa(lp909
S'pro5v'
p910
a(dp911
S'bootloader'
p912
(dp913
S'extended_fuses'
p914
S'0x00'
p915
sS'high_fuses'
p916
S'0xdd'
p917
sS'low_fuses'
p918
S'0xff'
p919
sS'lock_bits'
p920
S'0x0F'
p921
sS'file'
p922
S'ATmegaBOOT_168_diecimila.hex'
p923
sS'path'
p924
S'atmega'
p925
sS'unlock_bits'
p926
S'0x3F'
p927
ssS'upload'
p928
(dp929
S'speed'
p930
S'19200'
p931
sS'maximum_size'
p932
S'14336'
p933
sS'protocol'
p934
S'arduino'
p935
ssS'name'
p936
S'Arduino Pro or Pro Mini (5V, 16 MHz) w/ ATmega168'
p937
sS'build'
p938
(dp939
S'core'
p940
S'arduino'
p941
sS'mcu'
p942
S'atmega168'
p943
sS'f_cpu'
p944
S'16000000L'
p945
sS'variant'
p946
S'standard'
p947
ssaa(lp948
S'pro328'
p949
a(dp950
S'bootloader'
p951
(dp952
S'extended_fuses'
p953
S'0x05'
p954
sS'high_fuses'
p955
S'0xDA'
p956
sS'low_fuses'
p957
S'0xFF'
p958
sS'lock_bits'
p959
S'0x0F'
p960
sS'file'
p961
S'ATmegaBOOT_168_atmega328_pro_8MHz.hex'
p962
sS'path'
p963
S'atmega'
p964
sS'unlock_bits'
p965
S'0x3F'
p966
ssS'upload'
p967
(dp968
S'speed'
p969
S'57600'
p970
sS'maximum_size'
p971
S'30720'
p972
sS'protocol'
p973
S'arduino'
p974
ssS'name'
p975
S'Arduino Pro or Pro Mini (3.3V, 8 MHz) w/ ATmega328'
p976
sS'build'
p977
(dp978
S'core'
p979
S'arduino'
p980
sS'mcu'
p981
S'atmega328p'
p982
sS'f_cpu'
p983
S'8000000L'
p984
sS'variant'
p985
S'standard'
p986
ssaa(lp987
S'pro'
p988
a(dp989
S'bootloader'
p990
(dp991
S'extended_fuses'
p992
S'0x00'
p993
sS'high_fuses'
p994
S'0xdd'
p995
sS'low_fuses'
p996
S'0xc6'
p997
sS'lock_bits'
p998
S'0x0F'
p999
sS'file'
p1000
S'ATmegaBOOT_168_pro_8MHz.hex'
p1001
sS'path'
p1002
S'atmega'
p1003
sS'unlock_bits'
p1004
S'0x3F'
p1005
ssS'upload'
p1006
(dp1007
S'speed'
p1008
S'19200'
p1009
sS'maximum_size'
p1010
S'14336'
p1011
sS'protocol'
p1012
S'arduino'
p1013
ssS'name'
p1014
S'Arduino Pro or Pro Mini (3.3V, 8 MHz) w/ ATmega168'
p1015
sS'build'
p1016
(dp1017
S'core'
p1018
S'arduino'
p1019
sS'mcu'
p1020
S'atmega168'
p1021
sS'f_cpu'
p1022
S'8000000L'
p1023
sS'variant'
p1024
S'standard'
p1025
ssaa(lp1026
S'atmega168'
p1027
a(dp1028
S'bootloader'
p1029
(dp1030
S'extended_fuses'
p1031
S'0x00'
p1032
sS'high_fuses'
p1033
S'0xdd'
p1034
sS'low_fuses'
p1035
S'0xff'
p1036
sS'lock_bits'
p1037
S'0x0F'
p1038
sS'file'
p1039
S'ATmegaBOOT_168_ng.hex'
p1040
sS'path'
p1041
S'atmega'
p1042
sS'unlock_bits'
p1043
S'0x3F'
p1044
ssS'upload'
p1045
(dp1046
S'speed'
p1047
S'19200'
p1048
sS'maximum_size'
p1049
S'14336'
p1050
sS'protocol'
p1051
S'arduino'
p1052
ssS'name'
p1053
S'Arduino NG or older w/ ATmega168'
p1054
sS'build'
p1055
(dp1056
S'core'
p1057
S'arduino'
p1058
sS'mcu'
p1059
S'atmega168'
p1060
sS'f_cpu'
p1061
S'16000000L'
p1062
sS'variant'
p1063
S'standard'
p1064
ssaa(lp1065
S'atmega8'
p1066
a(dp1067
S'bootloader'
p1068
(dp1069
S'high_fuses'
p1070
S'0xca'
p1071
sS'low_fuses'
p1072
S'0xdf'
p1073
sS'lock_bits'
p1074
S'0x0F'
p1075
sS'file'
p1076
S'ATmegaBOOT-prod-firmware-2009-11-07.hex'
p1077
sS'path'
p1078
S'atmega8'
p1079
sS'unlock_bits'
p1080
S'0x3F'
p1081
ssS'upload'
p1082
(dp1083
S'speed'
p1084
S'19200'
p1085
sS'maximum_size'
p1086
S'7168'
p1087
sS'protocol'
p1088
S'arduino'
p1089
ssS'name'
p1090
S'Arduino NG or older w/ ATmega8'
p1091
sS'build'
p1092
(dp1093
S'core'
p1094
S'arduino'
p1095
sS'mcu'
p1096
S'atmega8'
p1097
sS'f_cpu'
p1098
S'16000000L'
p1099
sS'variant'
p1100
S'standard'
p1101
ssaa(lp1102
S'robotControl'
p1103
a(dp1104
S'bootloader'
p1105
(dp1106
S'extended_fuses'
p1107
S'0xcb'
p1108
sS'high_fuses'
p1109
S'0xd8'
p1110
sS'low_fuses'
p1111
S'0xff'
p1112
sS'lock_bits'
p1113
S'0x2F'
p1114
sS'file'
p1115
S'Caterina-Robot-Control.hex'
p1116
sS'path'
p1117
S'caterina-Arduino_Robot'
p1118
sS'unlock_bits'
p1119
S'0x3F'
p1120
ssS'upload'
p1121
(dp1122
S'speed'
p1123
S'57600'
p1124
sS'maximum_size'
p1125
S'28672'
p1126
sS'protocol'
p1127
S'avr109'
p1128
sS'disable_flushing'
p1129
S'true'
p1130
ssS'name'
p1131
S'Arduino Robot Control'
p1132
sS'build'
p1133
(dp1134
S'core'
p1135
S'robot'
p1136
sS'f_cpu'
p1137
S'16000000L'
p1138
sS'vid'
p1139
S'0x2341'
p1140
sS'pid'
p1141
S'0x8038'
p1142
sS'variant'
p1143
S'robot_control'
p1144
sS'mcu'
p1145
S'atmega32u4'
p1146
ssaa(lp1147
S'robotMotor'
p1148
a(dp1149
S'bootloader'
p1150
(dp1151
S'extended_fuses'
p1152
S'0xcb'
p1153
sS'high_fuses'
p1154
S'0xd8'
p1155
sS'low_fuses'
p1156
S'0xff'
p1157
sS'lock_bits'
p1158
S'0x2F'
p1159
sS'file'
p1160
S'Caterina-Robot-Motor.hex'
p1161
sS'path'
p1162
S'caterina-Arduino_Robot'
p1163
sS'unlock_bits'
p1164
S'0x3F'
p1165
ssS'upload'
p1166
(dp1167
S'speed'
p1168
S'57600'
p1169
sS'maximum_size'
p1170
S'28672'
p1171
sS'protocol'
p1172
S'avr109'
p1173
sS'disable_flushing'
p1174
S'true'
p1175
ssS'name'
p1176
S'Arduino Robot Motor'
p1177
sS'build'
p1178
(dp1179
S'core'
p1180
S'robot'
p1181
sS'f_cpu'
p1182
S'16000000L'
p1183
sS'vid'
p1184
S'0x2341'
p1185
sS'pid'
p1186
S'0x8039'
p1187
sS'variant'
p1188
S'robot_motor'
p1189
sS'mcu'
p1190
S'atmega32u4'
p1191
ssaatp1192
Rp1193
(dp1194
S'default'
p1195
S'uno'
p1196
sbtp1197
a(S'ldflags'
p1198
g2
(g3
g4
(lp1199
g6
aS'-Wl,-Os'
p1200
aS'-Wl,--gc-sections'
p1201
atp1202
Rp1203
tp1204
a.