(lp0
(S'cppflags'
p1
ccopy_reg
_reconstructor
p2
(cino.utils
SpaceList
p3
c__builtin__
list
p4
(lp5
S'-mmcu=atmega328p'
p6
aS'-DF_CPU=16000000L'
p7
aS'-DARDUINO=105'
p8
aS'-I/usr/share/arduino/hardware/arduino/cores/arduino'
p9
aS'-ffunction-sections'
p10
aS'-fdata-sections'
p11
aS'-g'
p12
aS'-Os'
p13
aS'-w'
p14
aS'-I/usr/share/arduino/hardware/arduino/variants/standard'
p15
aS'-I/usr/share/arduino/libraries/Robot_Control'
p16
aS'-I/usr/share/arduino/libraries/Robot_Control/utility'
p17
aS'-I/usr/share/arduino/libraries/SD'
p18
aS'-I/usr/share/arduino/libraries/SD/utility'
p19
aS'-I/usr/share/arduino/hardware/arduino/cores/arduino'
p20
aS'-I/usr/share/arduino/hardware/arduino/cores/arduino/avr-libc'
p21
atp22
Rp23
tp24
a(S'cxx'
p25
S'/usr/share/arduino/hardware/tools/avr/bin/avr-g++'
p26
tp27
a(S'version.txt'
p28
S'/usr/share/arduino/lib/version.txt'
p29
tp30
a(S'used_libs'
p31
(lp32
S'/usr/share/arduino/libraries/Robot_Control'
p33
aS'/usr/share/arduino/libraries/SD'
p34
aS'/usr/share/arduino/hardware/arduino/cores/arduino'
p35
atp36
a(S'cc'
p37
S'/usr/share/arduino/hardware/tools/avr/bin/avr-gcc'
p38
tp39
a(S'make'
p40
S'/usr/bin/make'
p41
tp42
a(S'cflags'
p43
g2
(g3
g4
(lp44
tp45
Rp46
tp47
a(S'build_dir'
p48
S'.build/uno'
p49
tp50
a(S'arduino_core_dir'
p51
g35
tp52
a(S'boards.txt'
p53
S'/usr/share/arduino/hardware/arduino/boards.txt'
p54
tp55
a(S'cxxflags'
p56
g2
(g3
g4
(lp57
S'-fno-exceptions'
p58
atp59
Rp60
tp61
a(S'arduino_variants_dir'
p62
S'/usr/share/arduino/hardware/arduino/variants'
p63
tp64
a(S'ar'
p65
S'/usr/share/arduino/hardware/tools/avr/bin/avr-ar'
p66
tp67
a(S'names'
p68
(dp69
S'cpp'
p70
S'%s.cpp'
p71
sS'obj'
p72
S'%s.o'
p73
sS'deps'
p74
S'%s.d'
p75
sS'lib'
p76
S'lib%s.a'
p77
stp78
a(S'deps'
p79
g2
(g3
g4
(lp80
S'.build/uno/src/dependencies.d'
p81
aS'.build/uno/arduino/dependencies.d'
p82
aS'.build/uno/Robot_Control/dependencies.d'
p83
aS'.build/uno/SD/dependencies.d'
p84
atp85
Rp86
tp87
a(S'arduino_libraries_dir'
p88
S'/usr/share/arduino/libraries'
p89
tp90
a(S'arduino_lib_version'
p91
g2
(cino.environment
Version
p92
c__builtin__
tuple
p93
(I1
I0
I5
tp94
tp95
Rp96
tp97
a(S'objcopy'
p98
S'/usr/share/arduino/hardware/tools/avr/bin/avr-objcopy'
p99
tp100
a(S'board_models'
p101
cino.environment
BoardModels
p102
((lp103
(lp104
S'uno'
p105
a(dp106
S'bootloader'
p107
(dp108
S'extended_fuses'
p109
S'0x05'
p110
sS'high_fuses'
p111
S'0xde'
p112
sS'low_fuses'
p113
S'0xff'
p114
sS'lock_bits'
p115
S'0x0F'
p116
sS'file'
p117
S'optiboot_atmega328.hex'
p118
sS'path'
p119
S'optiboot'
p120
sS'unlock_bits'
p121
S'0x3F'
p122
ssS'upload'
p123
(dp124
S'protocol'
p125
S'arduino'
p126
sS'maximum_size'
p127
S'32256'
p128
sS'speed'
p129
S'115200'
p130
ssS'build'
p131
(dp132
S'core'
p133
S'arduino'
p134
sS'mcu'
p135
S'atmega328p'
p136
sS'f_cpu'
p137
S'16000000L'
p138
sS'variant'
p139
S'standard'
p140
ssS'name'
p141
S'Arduino Uno'
p142
saa(lp143
S'atmega328'
p144
a(dp145
S'bootloader'
p146
(dp147
S'extended_fuses'
p148
S'0x05'
p149
sS'high_fuses'
p150
S'0xDA'
p151
sS'low_fuses'
p152
S'0xFF'
p153
sS'lock_bits'
p154
S'0x0F'
p155
sS'file'
p156
S'ATmegaBOOT_168_atmega328.hex'
p157
sS'path'
p158
S'atmega'
p159
sS'unlock_bits'
p160
S'0x3F'
p161
ssS'upload'
p162
(dp163
S'protocol'
p164
S'arduino'
p165
sS'maximum_size'
p166
S'30720'
p167
sS'speed'
p168
S'57600'
p169
ssS'build'
p170
(dp171
S'core'
p172
S'arduino'
p173
sS'mcu'
p174
S'atmega328p'
p175
sS'f_cpu'
p176
S'16000000L'
p177
sS'variant'
p178
S'standard'
p179
ssS'name'
p180
S'Arduino Duemilanove w/ ATmega328'
p181
saa(lp182
S'diecimila'
p183
a(dp184
S'bootloader'
p185
(dp186
S'extended_fuses'
p187
S'0x00'
p188
sS'high_fuses'
p189
S'0xdd'
p190
sS'low_fuses'
p191
S'0xff'
p192
sS'lock_bits'
p193
S'0x0F'
p194
sS'file'
p195
S'ATmegaBOOT_168_diecimila.hex'
p196
sS'path'
p197
S'atmega'
p198
sS'unlock_bits'
p199
S'0x3F'
p200
ssS'upload'
p201
(dp202
S'protocol'
p203
S'arduino'
p204
sS'maximum_size'
p205
S'14336'
p206
sS'speed'
p207
S'19200'
p208
ssS'build'
p209
(dp210
S'core'
p211
S'arduino'
p212
sS'mcu'
p213
S'atmega168'
p214
sS'f_cpu'
p215
S'16000000L'
p216
sS'variant'
p217
S'standard'
p218
ssS'name'
p219
S'Arduino Diecimila or Duemilanove w/ ATmega168'
p220
saa(lp221
S'nano328'
p222
a(dp223
S'bootloader'
p224
(dp225
S'extended_fuses'
p226
S'0x05'
p227
sS'high_fuses'
p228
S'0xDA'
p229
sS'low_fuses'
p230
S'0xFF'
p231
sS'lock_bits'
p232
S'0x0F'
p233
sS'file'
p234
S'ATmegaBOOT_168_atmega328.hex'
p235
sS'path'
p236
S'atmega'
p237
sS'unlock_bits'
p238
S'0x3F'
p239
ssS'upload'
p240
(dp241
S'protocol'
p242
S'arduino'
p243
sS'maximum_size'
p244
S'30720'
p245
sS'speed'
p246
S'57600'
p247
ssS'build'
p248
(dp249
S'core'
p250
S'arduino'
p251
sS'mcu'
p252
S'atmega328p'
p253
sS'f_cpu'
p254
S'16000000L'
p255
sS'variant'
p256
S'eightanaloginputs'
p257
ssS'name'
p258
S'Arduino Nano w/ ATmega328'
p259
saa(lp260
S'nano'
p261
a(dp262
S'bootloader'
p263
(dp264
S'extended_fuses'
p265
S'0x00'
p266
sS'high_fuses'
p267
S'0xdd'
p268
sS'low_fuses'
p269
S'0xff'
p270
sS'lock_bits'
p271
S'0x0F'
p272
sS'file'
p273
S'ATmegaBOOT_168_diecimila.hex'
p274
sS'path'
p275
S'atmega'
p276
sS'unlock_bits'
p277
S'0x3F'
p278
ssS'upload'
p279
(dp280
S'protocol'
p281
S'arduino'
p282
sS'maximum_size'
p283
S'14336'
p284
sS'speed'
p285
S'19200'
p286
ssS'build'
p287
(dp288
S'core'
p289
S'arduino'
p290
sS'mcu'
p291
S'atmega168'
p292
sS'f_cpu'
p293
S'16000000L'
p294
sS'variant'
p295
S'eightanaloginputs'
p296
ssS'name'
p297
S'Arduino Nano w/ ATmega168'
p298
saa(lp299
S'mega2560'
p300
a(dp301
S'bootloader'
p302
(dp303
S'extended_fuses'
p304
S'0xFD'
p305
sS'high_fuses'
p306
S'0xD8'
p307
sS'low_fuses'
p308
S'0xFF'
p309
sS'lock_bits'
p310
S'0x0F'
p311
sS'file'
p312
S'stk500boot_v2_mega2560.hex'
p313
sS'path'
p314
S'stk500v2'
p315
sS'unlock_bits'
p316
S'0x3F'
p317
ssS'upload'
p318
(dp319
S'protocol'
p320
S'wiring'
p321
sS'maximum_size'
p322
S'258048'
p323
sS'speed'
p324
S'115200'
p325
ssS'build'
p326
(dp327
S'core'
p328
S'arduino'
p329
sS'mcu'
p330
S'atmega2560'
p331
sS'f_cpu'
p332
S'16000000L'
p333
sS'variant'
p334
S'mega'
p335
ssS'name'
p336
S'Arduino Mega 2560 or Mega ADK'
p337
saa(lp338
S'mega'
p339
a(dp340
S'bootloader'
p341
(dp342
S'extended_fuses'
p343
S'0xF5'
p344
sS'high_fuses'
p345
S'0xDA'
p346
sS'low_fuses'
p347
S'0xFF'
p348
sS'lock_bits'
p349
S'0x0F'
p350
sS'file'
p351
S'ATmegaBOOT_168_atmega1280.hex'
p352
sS'path'
p353
S'atmega'
p354
sS'unlock_bits'
p355
S'0x3F'
p356
ssS'upload'
p357
(dp358
S'protocol'
p359
S'arduino'
p360
sS'maximum_size'
p361
S'126976'
p362
sS'speed'
p363
S'57600'
p364
ssS'build'
p365
(dp366
S'core'
p367
S'arduino'
p368
sS'mcu'
p369
S'atmega1280'
p370
sS'f_cpu'
p371
S'16000000L'
p372
sS'variant'
p373
S'mega'
p374
ssS'name'
p375
S'Arduino Mega (ATmega1280)'
p376
saa(lp377
S'leonardo'
p378
a(dp379
S'bootloader'
p380
(dp381
S'extended_fuses'
p382
S'0xcb'
p383
sS'high_fuses'
p384
S'0xd8'
p385
sS'low_fuses'
p386
S'0xff'
p387
sS'lock_bits'
p388
S'0x2F'
p389
sS'file'
p390
S'Caterina-Leonardo.hex'
p391
sS'path'
p392
S'caterina'
p393
sS'unlock_bits'
p394
S'0x3F'
p395
ssS'upload'
p396
(dp397
S'protocol'
p398
S'avr109'
p399
sS'maximum_size'
p400
S'28672'
p401
sS'speed'
p402
S'57600'
p403
sS'disable_flushing'
p404
S'true'
p405
ssS'build'
p406
(dp407
S'core'
p408
S'arduino'
p409
sS'f_cpu'
p410
S'16000000L'
p411
sS'vid'
p412
S'0x2341'
p413
sS'pid'
p414
S'0x8036'
p415
sS'variant'
p416
S'leonardo'
p417
sS'mcu'
p418
S'atmega32u4'
p419
ssS'name'
p420
S'Arduino Leonardo'
p421
saa(lp422
S'esplora'
p423
a(dp424
S'bootloader'
p425
(dp426
S'extended_fuses'
p427
S'0xcb'
p428
sS'high_fuses'
p429
S'0xd8'
p430
sS'low_fuses'
p431
S'0xff'
p432
sS'lock_bits'
p433
S'0x2F'
p434
sS'file'
p435
S'Caterina-Esplora.hex'
p436
sS'path'
p437
S'caterina'
p438
sS'unlock_bits'
p439
S'0x3F'
p440
ssS'upload'
p441
(dp442
S'protocol'
p443
S'avr109'
p444
sS'maximum_size'
p445
S'28672'
p446
sS'speed'
p447
S'57600'
p448
sS'disable_flushing'
p449
S'true'
p450
ssS'build'
p451
(dp452
S'core'
p453
S'arduino'
p454
sS'f_cpu'
p455
S'16000000L'
p456
sS'vid'
p457
S'0x2341'
p458
sS'pid'
p459
S'0x803C'
p460
sS'variant'
p461
S'leonardo'
p462
sS'mcu'
p463
S'atmega32u4'
p464
ssS'name'
p465
S'Arduino Esplora'
p466
saa(lp467
S'micro'
p468
a(dp469
S'bootloader'
p470
(dp471
S'extended_fuses'
p472
S'0xcb'
p473
sS'high_fuses'
p474
S'0xd8'
p475
sS'low_fuses'
p476
S'0xff'
p477
sS'lock_bits'
p478
S'0x2F'
p479
sS'file'
p480
S'Caterina-Micro.hex'
p481
sS'path'
p482
S'caterina'
p483
sS'unlock_bits'
p484
S'0x3F'
p485
ssS'upload'
p486
(dp487
S'protocol'
p488
S'avr109'
p489
sS'maximum_size'
p490
S'28672'
p491
sS'speed'
p492
S'57600'
p493
sS'disable_flushing'
p494
S'true'
p495
ssS'build'
p496
(dp497
S'core'
p498
S'arduino'
p499
sS'f_cpu'
p500
S'16000000L'
p501
sS'vid'
p502
S'0x2341'
p503
sS'pid'
p504
S'0x8037'
p505
sS'variant'
p506
S'micro'
p507
sS'mcu'
p508
S'atmega32u4'
p509
ssS'name'
p510
S'Arduino Micro'
p511
saa(lp512
S'mini328'
p513
a(dp514
S'bootloader'
p515
(dp516
S'extended_fuses'
p517
S'0x05'
p518
sS'high_fuses'
p519
S'0xd8'
p520
sS'low_fuses'
p521
S'0xff'
p522
sS'lock_bits'
p523
S'0x0F'
p524
sS'file'
p525
S'optiboot_atmega328-Mini.hex'
p526
sS'path'
p527
S'optiboot'
p528
sS'unlock_bits'
p529
S'0x3F'
p530
ssS'upload'
p531
(dp532
S'protocol'
p533
S'arduino'
p534
sS'maximum_size'
p535
S'28672'
p536
sS'speed'
p537
S'115200'
p538
ssS'build'
p539
(dp540
S'core'
p541
S'arduino'
p542
sS'mcu'
p543
S'atmega328p'
p544
sS'f_cpu'
p545
S'16000000L'
p546
sS'variant'
p547
S'eightanaloginputs'
p548
ssS'name'
p549
S'Arduino Mini w/ ATmega328'
p550
saa(lp551
S'mini'
p552
a(dp553
S'bootloader'
p554
(dp555
S'extended_fuses'
p556
S'0x00'
p557
sS'high_fuses'
p558
S'0xdd'
p559
sS'low_fuses'
p560
S'0xff'
p561
sS'lock_bits'
p562
S'0x0F'
p563
sS'file'
p564
S'ATmegaBOOT_168_ng.hex'
p565
sS'path'
p566
S'atmega'
p567
sS'unlock_bits'
p568
S'0x3F'
p569
ssS'upload'
p570
(dp571
S'protocol'
p572
S'arduino'
p573
sS'maximum_size'
p574
S'14336'
p575
sS'speed'
p576
S'19200'
p577
ssS'build'
p578
(dp579
S'core'
p580
S'arduino'
p581
sS'mcu'
p582
S'atmega168'
p583
sS'f_cpu'
p584
S'16000000L'
p585
sS'variant'
p586
S'eightanaloginputs'
p587
ssS'name'
p588
S'Arduino Mini w/ ATmega168'
p589
saa(lp590
S'ethernet'
p591
a(dp592
S'bootloader'
p593
(dp594
S'extended_fuses'
p595
S'0x05'
p596
sS'high_fuses'
p597
S'0xde'
p598
sS'low_fuses'
p599
S'0xff'
p600
sS'lock_bits'
p601
S'0x0F'
p602
sS'file'
p603
S'optiboot_atmega328.hex'
p604
sS'path'
p605
S'optiboot'
p606
sS'unlock_bits'
p607
S'0x3F'
p608
ssS'upload'
p609
(dp610
S'protocol'
p611
S'arduino'
p612
sS'maximum_size'
p613
S'32256'
p614
sS'speed'
p615
S'115200'
p616
ssS'build'
p617
(dp618
S'variant'
p619
S'standard'
p620
sS'mcu'
p621
S'atmega328p'
p622
sS'f_cpu'
p623
S'16000000L'
p624
sS'core'
p625
S'arduino'
p626
ssS'name'
p627
S'Arduino Ethernet'
p628
saa(lp629
S'fio'
p630
a(dp631
S'bootloader'
p632
(dp633
S'extended_fuses'
p634
S'0x05'
p635
sS'high_fuses'
p636
S'0xDA'
p637
sS'low_fuses'
p638
S'0xFF'
p639
sS'lock_bits'
p640
S'0x0F'
p641
sS'file'
p642
S'ATmegaBOOT_168_atmega328_pro_8MHz.hex'
p643
sS'path'
p644
S'arduino:atmega'
p645
sS'unlock_bits'
p646
S'0x3F'
p647
ssS'upload'
p648
(dp649
S'protocol'
p650
S'arduino'
p651
sS'maximum_size'
p652
S'30720'
p653
sS'speed'
p654
S'57600'
p655
ssS'build'
p656
(dp657
S'core'
p658
S'arduino'
p659
sS'mcu'
p660
S'atmega328p'
p661
sS'f_cpu'
p662
S'8000000L'
p663
sS'variant'
p664
S'eightanaloginputs'
p665
ssS'name'
p666
S'Arduino Fio'
p667
saa(lp668
S'bt328'
p669
a(dp670
S'bootloader'
p671
(dp672
S'extended_fuses'
p673
S'0x05'
p674
sS'high_fuses'
p675
S'0xd8'
p676
sS'low_fuses'
p677
S'0xff'
p678
sS'lock_bits'
p679
S'0x0F'
p680
sS'file'
p681
S'ATmegaBOOT_168_atmega328_bt.hex'
p682
sS'path'
p683
S'bt'
p684
sS'unlock_bits'
p685
S'0x3F'
p686
ssS'upload'
p687
(dp688
S'protocol'
p689
S'arduino'
p690
sS'maximum_size'
p691
S'28672'
p692
sS'speed'
p693
S'19200'
p694
sS'disable_flushing'
p695
S'true'
p696
ssS'build'
p697
(dp698
S'core'
p699
S'arduino'
p700
sS'mcu'
p701
S'atmega328p'
p702
sS'f_cpu'
p703
S'16000000L'
p704
sS'variant'
p705
S'eightanaloginputs'
p706
ssS'name'
p707
S'Arduino BT w/ ATmega328'
p708
saa(lp709
S'bt'
p710
a(dp711
S'bootloader'
p712
(dp713
S'extended_fuses'
p714
S'0x00'
p715
sS'high_fuses'
p716
S'0xdd'
p717
sS'low_fuses'
p718
S'0xff'
p719
sS'lock_bits'
p720
S'0x0F'
p721
sS'file'
p722
S'ATmegaBOOT_168.hex'
p723
sS'path'
p724
S'bt'
p725
sS'unlock_bits'
p726
S'0x3F'
p727
ssS'upload'
p728
(dp729
S'protocol'
p730
S'arduino'
p731
sS'maximum_size'
p732
S'14336'
p733
sS'speed'
p734
S'19200'
p735
sS'disable_flushing'
p736
S'true'
p737
ssS'build'
p738
(dp739
S'core'
p740
S'arduino'
p741
sS'mcu'
p742
S'atmega168'
p743
sS'f_cpu'
p744
S'16000000L'
p745
sS'variant'
p746
S'eightanaloginputs'
p747
ssS'name'
p748
S'Arduino BT w/ ATmega168'
p749
saa(lp750
S'LilyPadUSB'
p751
a(dp752
S'bootloader'
p753
(dp754
S'extended_fuses'
p755
S'0xce'
p756
sS'high_fuses'
p757
S'0xd8'
p758
sS'low_fuses'
p759
S'0xff'
p760
sS'lock_bits'
p761
S'0x2F'
p762
sS'file'
p763
S'Caterina-LilyPadUSB.hex'
p764
sS'path'
p765
S'caterina-LilyPadUSB'
p766
sS'unlock_bits'
p767
S'0x3F'
p768
ssS'upload'
p769
(dp770
S'protocol'
p771
S'avr109'
p772
sS'maximum_size'
p773
S'28672'
p774
sS'speed'
p775
S'57600'
p776
sS'disable_flushing'
p777
S'true'
p778
ssS'build'
p779
(dp780
S'core'
p781
S'arduino'
p782
sS'f_cpu'
p783
S'8000000L'
p784
sS'vid'
p785
S'0x1B4F'
p786
sS'pid'
p787
S'0x9208'
p788
sS'variant'
p789
S'leonardo'
p790
sS'mcu'
p791
S'atmega32u4'
p792
ssS'name'
p793
S'LilyPad Arduino USB'
p794
saa(lp795
S'lilypad328'
p796
a(dp797
S'bootloader'
p798
(dp799
S'extended_fuses'
p800
S'0x05'
p801
sS'high_fuses'
p802
S'0xDA'
p803
sS'low_fuses'
p804
S'0xFF'
p805
sS'lock_bits'
p806
S'0x0F'
p807
sS'file'
p808
S'ATmegaBOOT_168_atmega328_pro_8MHz.hex'
p809
sS'path'
p810
S'atmega'
p811
sS'unlock_bits'
p812
S'0x3F'
p813
ssS'upload'
p814
(dp815
S'protocol'
p816
S'arduino'
p817
sS'maximum_size'
p818
S'30720'
p819
sS'speed'
p820
S'57600'
p821
ssS'build'
p822
(dp823
S'core'
p824
S'arduino'
p825
sS'mcu'
p826
S'atmega328p'
p827
sS'f_cpu'
p828
S'8000000L'
p829
sS'variant'
p830
S'standard'
p831
ssS'name'
p832
S'LilyPad Arduino w/ ATmega328'
p833
saa(lp834
S'lilypad'
p835
a(dp836
S'bootloader'
p837
(dp838
S'extended_fuses'
p839
S'0x00'
p840
sS'high_fuses'
p841
S'0xdd'
p842
sS'low_fuses'
p843
S'0xe2'
p844
sS'lock_bits'
p845
S'0x0F'
p846
sS'file'
p847
S'LilyPadBOOT_168.hex'
p848
sS'path'
p849
S'lilypad'
p850
sS'unlock_bits'
p851
S'0x3F'
p852
ssS'upload'
p853
(dp854
S'protocol'
p855
S'arduino'
p856
sS'maximum_size'
p857
S'14336'
p858
sS'speed'
p859
S'19200'
p860
ssS'build'
p861
(dp862
S'core'
p863
S'arduino'
p864
sS'mcu'
p865
S'atmega168'
p866
sS'f_cpu'
p867
S'8000000L'
p868
sS'variant'
p869
S'standard'
p870
ssS'name'
p871
S'LilyPad Arduino w/ ATmega168'
p872
saa(lp873
S'pro5v328'
p874
a(dp875
S'bootloader'
p876
(dp877
S'extended_fuses'
p878
S'0x05'
p879
sS'high_fuses'
p880
S'0xDA'
p881
sS'low_fuses'
p882
S'0xFF'
p883
sS'lock_bits'
p884
S'0x0F'
p885
sS'file'
p886
S'ATmegaBOOT_168_atmega328.hex'
p887
sS'path'
p888
S'atmega'
p889
sS'unlock_bits'
p890
S'0x3F'
p891
ssS'upload'
p892
(dp893
S'protocol'
p894
S'arduino'
p895
sS'maximum_size'
p896
S'30720'
p897
sS'speed'
p898
S'57600'
p899
ssS'build'
p900
(dp901
S'core'
p902
S'arduino'
p903
sS'mcu'
p904
S'atmega328p'
p905
sS'f_cpu'
p906
S'16000000L'
p907
sS'variant'
p908
S'standard'
p909
ssS'name'
p910
S'Arduino Pro or Pro Mini (5V, 16 MHz) w/ ATmega328'
p911
saa(lp912
S'pro5v'
p913
a(dp914
S'bootloader'
p915
(dp916
S'extended_fuses'
p917
S'0x00'
p918
sS'high_fuses'
p919
S'0xdd'
p920
sS'low_fuses'
p921
S'0xff'
p922
sS'lock_bits'
p923
S'0x0F'
p924
sS'file'
p925
S'ATmegaBOOT_168_diecimila.hex'
p926
sS'path'
p927
S'atmega'
p928
sS'unlock_bits'
p929
S'0x3F'
p930
ssS'upload'
p931
(dp932
S'protocol'
p933
S'arduino'
p934
sS'maximum_size'
p935
S'14336'
p936
sS'speed'
p937
S'19200'
p938
ssS'build'
p939
(dp940
S'core'
p941
S'arduino'
p942
sS'mcu'
p943
S'atmega168'
p944
sS'f_cpu'
p945
S'16000000L'
p946
sS'variant'
p947
S'standard'
p948
ssS'name'
p949
S'Arduino Pro or Pro Mini (5V, 16 MHz) w/ ATmega168'
p950
saa(lp951
S'pro328'
p952
a(dp953
S'bootloader'
p954
(dp955
S'extended_fuses'
p956
S'0x05'
p957
sS'high_fuses'
p958
S'0xDA'
p959
sS'low_fuses'
p960
S'0xFF'
p961
sS'lock_bits'
p962
S'0x0F'
p963
sS'file'
p964
S'ATmegaBOOT_168_atmega328_pro_8MHz.hex'
p965
sS'path'
p966
S'atmega'
p967
sS'unlock_bits'
p968
S'0x3F'
p969
ssS'upload'
p970
(dp971
S'protocol'
p972
S'arduino'
p973
sS'maximum_size'
p974
S'30720'
p975
sS'speed'
p976
S'57600'
p977
ssS'build'
p978
(dp979
S'core'
p980
S'arduino'
p981
sS'mcu'
p982
S'atmega328p'
p983
sS'f_cpu'
p984
S'8000000L'
p985
sS'variant'
p986
S'standard'
p987
ssS'name'
p988
S'Arduino Pro or Pro Mini (3.3V, 8 MHz) w/ ATmega328'
p989
saa(lp990
S'pro'
p991
a(dp992
S'bootloader'
p993
(dp994
S'extended_fuses'
p995
S'0x00'
p996
sS'high_fuses'
p997
S'0xdd'
p998
sS'low_fuses'
p999
S'0xc6'
p1000
sS'lock_bits'
p1001
S'0x0F'
p1002
sS'file'
p1003
S'ATmegaBOOT_168_pro_8MHz.hex'
p1004
sS'path'
p1005
S'atmega'
p1006
sS'unlock_bits'
p1007
S'0x3F'
p1008
ssS'upload'
p1009
(dp1010
S'protocol'
p1011
S'arduino'
p1012
sS'maximum_size'
p1013
S'14336'
p1014
sS'speed'
p1015
S'19200'
p1016
ssS'build'
p1017
(dp1018
S'core'
p1019
S'arduino'
p1020
sS'mcu'
p1021
S'atmega168'
p1022
sS'f_cpu'
p1023
S'8000000L'
p1024
sS'variant'
p1025
S'standard'
p1026
ssS'name'
p1027
S'Arduino Pro or Pro Mini (3.3V, 8 MHz) w/ ATmega168'
p1028
saa(lp1029
S'atmega168'
p1030
a(dp1031
S'bootloader'
p1032
(dp1033
S'extended_fuses'
p1034
S'0x00'
p1035
sS'high_fuses'
p1036
S'0xdd'
p1037
sS'low_fuses'
p1038
S'0xff'
p1039
sS'lock_bits'
p1040
S'0x0F'
p1041
sS'file'
p1042
S'ATmegaBOOT_168_ng.hex'
p1043
sS'path'
p1044
S'atmega'
p1045
sS'unlock_bits'
p1046
S'0x3F'
p1047
ssS'upload'
p1048
(dp1049
S'protocol'
p1050
S'arduino'
p1051
sS'maximum_size'
p1052
S'14336'
p1053
sS'speed'
p1054
S'19200'
p1055
ssS'build'
p1056
(dp1057
S'core'
p1058
S'arduino'
p1059
sS'mcu'
p1060
S'atmega168'
p1061
sS'f_cpu'
p1062
S'16000000L'
p1063
sS'variant'
p1064
S'standard'
p1065
ssS'name'
p1066
S'Arduino NG or older w/ ATmega168'
p1067
saa(lp1068
S'atmega8'
p1069
a(dp1070
S'bootloader'
p1071
(dp1072
S'high_fuses'
p1073
S'0xca'
p1074
sS'low_fuses'
p1075
S'0xdf'
p1076
sS'lock_bits'
p1077
S'0x0F'
p1078
sS'file'
p1079
S'ATmegaBOOT-prod-firmware-2009-11-07.hex'
p1080
sS'path'
p1081
S'atmega8'
p1082
sS'unlock_bits'
p1083
S'0x3F'
p1084
ssS'upload'
p1085
(dp1086
S'protocol'
p1087
S'arduino'
p1088
sS'maximum_size'
p1089
S'7168'
p1090
sS'speed'
p1091
S'19200'
p1092
ssS'build'
p1093
(dp1094
S'core'
p1095
S'arduino'
p1096
sS'mcu'
p1097
S'atmega8'
p1098
sS'f_cpu'
p1099
S'16000000L'
p1100
sS'variant'
p1101
S'standard'
p1102
ssS'name'
p1103
S'Arduino NG or older w/ ATmega8'
p1104
saa(lp1105
S'robotControl'
p1106
a(dp1107
S'bootloader'
p1108
(dp1109
S'extended_fuses'
p1110
S'0xcb'
p1111
sS'high_fuses'
p1112
S'0xd8'
p1113
sS'low_fuses'
p1114
S'0xff'
p1115
sS'lock_bits'
p1116
S'0x2F'
p1117
sS'file'
p1118
S'Caterina-Robot-Control.hex'
p1119
sS'path'
p1120
S'caterina-Arduino_Robot'
p1121
sS'unlock_bits'
p1122
S'0x3F'
p1123
ssS'upload'
p1124
(dp1125
S'protocol'
p1126
S'avr109'
p1127
sS'maximum_size'
p1128
S'28672'
p1129
sS'speed'
p1130
S'57600'
p1131
sS'disable_flushing'
p1132
S'true'
p1133
ssS'build'
p1134
(dp1135
S'core'
p1136
S'robot'
p1137
sS'f_cpu'
p1138
S'16000000L'
p1139
sS'vid'
p1140
S'0x2341'
p1141
sS'pid'
p1142
S'0x8038'
p1143
sS'variant'
p1144
S'robot_control'
p1145
sS'mcu'
p1146
S'atmega32u4'
p1147
ssS'name'
p1148
S'Arduino Robot Control'
p1149
saa(lp1150
S'robotMotor'
p1151
a(dp1152
S'bootloader'
p1153
(dp1154
S'extended_fuses'
p1155
S'0xcb'
p1156
sS'high_fuses'
p1157
S'0xd8'
p1158
sS'low_fuses'
p1159
S'0xff'
p1160
sS'lock_bits'
p1161
S'0x2F'
p1162
sS'file'
p1163
S'Caterina-Robot-Motor.hex'
p1164
sS'path'
p1165
S'caterina-Arduino_Robot'
p1166
sS'unlock_bits'
p1167
S'0x3F'
p1168
ssS'upload'
p1169
(dp1170
S'protocol'
p1171
S'avr109'
p1172
sS'maximum_size'
p1173
S'28672'
p1174
sS'speed'
p1175
S'57600'
p1176
sS'disable_flushing'
p1177
S'true'
p1178
ssS'build'
p1179
(dp1180
S'core'
p1181
S'robot'
p1182
sS'f_cpu'
p1183
S'16000000L'
p1184
sS'vid'
p1185
S'0x2341'
p1186
sS'pid'
p1187
S'0x8039'
p1188
sS'variant'
p1189
S'robot_motor'
p1190
sS'mcu'
p1191
S'atmega32u4'
p1192
ssS'name'
p1193
S'Arduino Robot Motor'
p1194
saatp1195
Rp1196
(dp1197
S'default'
p1198
S'uno'
p1199
sbtp1200
a(S'ldflags'
p1201
g2
(g3
g4
(lp1202
g6
aS'-Wl,-Os'
p1203
aS'-Wl,--gc-sections'
p1204
atp1205
Rp1206
tp1207
a.