(lp0
(S'cxx'
p1
S'/usr/share/arduino/hardware/tools/avr/bin/avr-g++'
p2
tp3
a(S'stty'
p4
S'/usr/bin/stty'
p5
tp6
a(S'version.txt'
p7
S'/usr/share/arduino/lib/version.txt'
p8
tp9
a(S'cc'
p10
S'/usr/share/arduino/hardware/tools/avr/bin/avr-gcc'
p11
tp12
a(S'cflags'
p13
ccopy_reg
_reconstructor
p14
(cino.utils
SpaceList
p15
c__builtin__
list
p16
(lp17
S'-mmcu=atmega328p'
p18
aS'-ffunction-sections'
p19
aS'-fdata-sections'
p20
aS'-g'
p21
aS'-Os'
p22
aS'-w'
p23
aS'-DF_CPU=16000000L'
p24
aS'-DARDUINO=100'
p25
aS'-I/usr/share/arduino/hardware/arduino/cores/arduino'
p26
aS'-I/usr/share/arduino/hardware/arduino/variants/standard'
p27
atp28
Rp29
tp30
a(S'build_dir'
p31
S'.build/uno'
p32
tp33
a(S'arduino_core_dir'
p34
S'/usr/share/arduino/hardware/arduino/cores/arduino'
p35
tp36
a(S'boards.txt'
p37
S'/usr/share/arduino/hardware/arduino/boards.txt'
p38
tp39
a(S'cxxflags'
p40
g14
(g15
g16
(lp41
S'-fno-exceptions'
p42
atp43
Rp44
tp45
a(S'arduino_variants_dir'
p46
S'/usr/share/arduino/hardware/arduino/variants'
p47
tp48
a(S'avrdude'
p49
S'/usr/share/arduino/hardware/tools/avrdude'
p50
tp51
a(S'avrdude.conf'
p52
S'/usr/share/arduino/hardware/tools/avrdude.conf'
p53
tp54
a(S'names'
p55
(dp56
S'cpp'
p57
S'%s.cpp'
p58
sS'obj'
p59
S'%s.o'
p60
sS'deps'
p61
S'%s.d'
p62
sS'lib'
p63
S'lib%s.a'
p64
stp65
a(S'deps'
p66
g14
(g15
g16
(lp67
tp68
Rp69
tp70
a(S'arduino_libraries_dir'
p71
S'/usr/share/arduino/libraries'
p72
tp73
a(S'arduino_lib_version'
p74
g14
(cino.environment
Version
p75
c__builtin__
tuple
p76
(I1
I0
tp77
tp78
Rp79
tp80
a(S'objcopy'
p81
S'/usr/share/arduino/hardware/tools/avr/bin/avr-objcopy'
p82
tp83
a(S'ar'
p84
S'/usr/share/arduino/hardware/tools/avr/bin/avr-ar'
p85
tp86
a(S'board_models'
p87
cino.environment
BoardModels
p88
((lp89
(lp90
S'uno'
p91
a(dp92
S'bootloader'
p93
(dp94
S'extended_fuses'
p95
S'0x05'
p96
sS'high_fuses'
p97
S'0xde'
p98
sS'low_fuses'
p99
S'0xff'
p100
sS'lock_bits'
p101
S'0x0F'
p102
sS'file'
p103
S'optiboot_atmega328.hex'
p104
sS'path'
p105
S'optiboot'
p106
sS'unlock_bits'
p107
S'0x3F'
p108
ssS'upload'
p109
(dp110
S'protocol'
p111
S'arduino'
p112
sS'maximum_size'
p113
S'32256'
p114
sS'speed'
p115
S'115200'
p116
ssS'build'
p117
(dp118
S'core'
p119
S'arduino'
p120
sS'mcu'
p121
S'atmega328p'
p122
sS'f_cpu'
p123
S'16000000L'
p124
sS'variant'
p125
S'standard'
p126
ssS'name'
p127
S'Arduino Uno'
p128
saa(lp129
S'atmega328'
p130
a(dp131
S'bootloader'
p132
(dp133
S'extended_fuses'
p134
S'0x05'
p135
sS'high_fuses'
p136
S'0xDA'
p137
sS'low_fuses'
p138
S'0xFF'
p139
sS'lock_bits'
p140
S'0x0F'
p141
sS'file'
p142
S'ATmegaBOOT_168_atmega328.hex'
p143
sS'path'
p144
S'atmega'
p145
sS'unlock_bits'
p146
S'0x3F'
p147
ssS'upload'
p148
(dp149
S'protocol'
p150
S'arduino'
p151
sS'maximum_size'
p152
S'30720'
p153
sS'speed'
p154
S'57600'
p155
ssS'build'
p156
(dp157
S'core'
p158
S'arduino'
p159
sS'mcu'
p160
S'atmega328p'
p161
sS'f_cpu'
p162
S'16000000L'
p163
sS'variant'
p164
S'standard'
p165
ssS'name'
p166
S'Arduino Duemilanove w/ ATmega328'
p167
saa(lp168
S'diecimila'
p169
a(dp170
S'bootloader'
p171
(dp172
S'extended_fuses'
p173
S'0x00'
p174
sS'high_fuses'
p175
S'0xdd'
p176
sS'low_fuses'
p177
S'0xff'
p178
sS'lock_bits'
p179
S'0x0F'
p180
sS'file'
p181
S'ATmegaBOOT_168_diecimila.hex'
p182
sS'path'
p183
S'atmega'
p184
sS'unlock_bits'
p185
S'0x3F'
p186
ssS'upload'
p187
(dp188
S'protocol'
p189
S'arduino'
p190
sS'maximum_size'
p191
S'14336'
p192
sS'speed'
p193
S'19200'
p194
ssS'build'
p195
(dp196
S'core'
p197
S'arduino'
p198
sS'mcu'
p199
S'atmega168'
p200
sS'f_cpu'
p201
S'16000000L'
p202
sS'variant'
p203
S'standard'
p204
ssS'name'
p205
S'Arduino Diecimila or Duemilanove w/ ATmega168'
p206
saa(lp207
S'nano328'
p208
a(dp209
S'bootloader'
p210
(dp211
S'extended_fuses'
p212
S'0x05'
p213
sS'high_fuses'
p214
S'0xDA'
p215
sS'low_fuses'
p216
S'0xFF'
p217
sS'lock_bits'
p218
S'0x0F'
p219
sS'file'
p220
S'ATmegaBOOT_168_atmega328.hex'
p221
sS'path'
p222
S'atmega'
p223
sS'unlock_bits'
p224
S'0x3F'
p225
ssS'upload'
p226
(dp227
S'protocol'
p228
S'arduino'
p229
sS'maximum_size'
p230
S'30720'
p231
sS'speed'
p232
S'57600'
p233
ssS'build'
p234
(dp235
S'core'
p236
S'arduino'
p237
sS'mcu'
p238
S'atmega328p'
p239
sS'f_cpu'
p240
S'16000000L'
p241
sS'variant'
p242
S'eightanaloginputs'
p243
ssS'name'
p244
S'Arduino Nano w/ ATmega328'
p245
saa(lp246
S'nano'
p247
a(dp248
S'bootloader'
p249
(dp250
S'extended_fuses'
p251
S'0x00'
p252
sS'high_fuses'
p253
S'0xdd'
p254
sS'low_fuses'
p255
S'0xff'
p256
sS'lock_bits'
p257
S'0x0F'
p258
sS'file'
p259
S'ATmegaBOOT_168_diecimila.hex'
p260
sS'path'
p261
S'atmega'
p262
sS'unlock_bits'
p263
S'0x3F'
p264
ssS'upload'
p265
(dp266
S'protocol'
p267
S'arduino'
p268
sS'maximum_size'
p269
S'14336'
p270
sS'speed'
p271
S'19200'
p272
ssS'build'
p273
(dp274
S'core'
p275
S'arduino'
p276
sS'mcu'
p277
S'atmega168'
p278
sS'f_cpu'
p279
S'16000000L'
p280
sS'variant'
p281
S'eightanaloginputs'
p282
ssS'name'
p283
S'Arduino Nano w/ ATmega168'
p284
saa(lp285
S'mega2560'
p286
a(dp287
S'bootloader'
p288
(dp289
S'extended_fuses'
p290
S'0xFD'
p291
sS'high_fuses'
p292
S'0xD8'
p293
sS'low_fuses'
p294
S'0xFF'
p295
sS'lock_bits'
p296
S'0x0F'
p297
sS'file'
p298
S'stk500boot_v2_mega2560.hex'
p299
sS'path'
p300
S'stk500v2'
p301
sS'unlock_bits'
p302
S'0x3F'
p303
ssS'upload'
p304
(dp305
S'protocol'
p306
S'wiring'
p307
sS'maximum_size'
p308
S'258048'
p309
sS'speed'
p310
S'115200'
p311
ssS'build'
p312
(dp313
S'core'
p314
S'arduino'
p315
sS'mcu'
p316
S'atmega2560'
p317
sS'f_cpu'
p318
S'16000000L'
p319
sS'variant'
p320
S'mega'
p321
ssS'name'
p322
S'Arduino Mega 2560 or Mega ADK'
p323
saa(lp324
S'mega'
p325
a(dp326
S'bootloader'
p327
(dp328
S'extended_fuses'
p329
S'0xF5'
p330
sS'high_fuses'
p331
S'0xDA'
p332
sS'low_fuses'
p333
S'0xFF'
p334
sS'lock_bits'
p335
S'0x0F'
p336
sS'file'
p337
S'ATmegaBOOT_168_atmega1280.hex'
p338
sS'path'
p339
S'atmega'
p340
sS'unlock_bits'
p341
S'0x3F'
p342
ssS'upload'
p343
(dp344
S'protocol'
p345
S'arduino'
p346
sS'maximum_size'
p347
S'126976'
p348
sS'speed'
p349
S'57600'
p350
ssS'build'
p351
(dp352
S'core'
p353
S'arduino'
p354
sS'mcu'
p355
S'atmega1280'
p356
sS'f_cpu'
p357
S'16000000L'
p358
sS'variant'
p359
S'mega'
p360
ssS'name'
p361
S'Arduino Mega (ATmega1280)'
p362
saa(lp363
S'leonardo'
p364
a(dp365
S'bootloader'
p366
(dp367
S'extended_fuses'
p368
S'0xcb'
p369
sS'high_fuses'
p370
S'0xd8'
p371
sS'low_fuses'
p372
S'0xff'
p373
sS'lock_bits'
p374
S'0x2F'
p375
sS'file'
p376
S'Caterina-Leonardo.hex'
p377
sS'path'
p378
S'caterina'
p379
sS'unlock_bits'
p380
S'0x3F'
p381
ssS'upload'
p382
(dp383
S'protocol'
p384
S'avr109'
p385
sS'maximum_size'
p386
S'28672'
p387
sS'speed'
p388
S'57600'
p389
sS'disable_flushing'
p390
S'true'
p391
ssS'build'
p392
(dp393
S'core'
p394
S'arduino'
p395
sS'f_cpu'
p396
S'16000000L'
p397
sS'vid'
p398
S'0x2341'
p399
sS'pid'
p400
S'0x8036'
p401
sS'variant'
p402
S'leonardo'
p403
sS'mcu'
p404
S'atmega32u4'
p405
ssS'name'
p406
S'Arduino Leonardo'
p407
saa(lp408
S'esplora'
p409
a(dp410
S'bootloader'
p411
(dp412
S'extended_fuses'
p413
S'0xcb'
p414
sS'high_fuses'
p415
S'0xd8'
p416
sS'low_fuses'
p417
S'0xff'
p418
sS'lock_bits'
p419
S'0x2F'
p420
sS'file'
p421
S'Caterina-Esplora.hex'
p422
sS'path'
p423
S'caterina'
p424
sS'unlock_bits'
p425
S'0x3F'
p426
ssS'upload'
p427
(dp428
S'protocol'
p429
S'avr109'
p430
sS'maximum_size'
p431
S'28672'
p432
sS'speed'
p433
S'57600'
p434
sS'disable_flushing'
p435
S'true'
p436
ssS'build'
p437
(dp438
S'core'
p439
S'arduino'
p440
sS'f_cpu'
p441
S'16000000L'
p442
sS'vid'
p443
S'0x2341'
p444
sS'pid'
p445
S'0x803C'
p446
sS'variant'
p447
S'leonardo'
p448
sS'mcu'
p449
S'atmega32u4'
p450
ssS'name'
p451
S'Arduino Esplora'
p452
saa(lp453
S'micro'
p454
a(dp455
S'bootloader'
p456
(dp457
S'extended_fuses'
p458
S'0xcb'
p459
sS'high_fuses'
p460
S'0xd8'
p461
sS'low_fuses'
p462
S'0xff'
p463
sS'lock_bits'
p464
S'0x2F'
p465
sS'file'
p466
S'Caterina-Micro.hex'
p467
sS'path'
p468
S'caterina'
p469
sS'unlock_bits'
p470
S'0x3F'
p471
ssS'upload'
p472
(dp473
S'protocol'
p474
S'avr109'
p475
sS'maximum_size'
p476
S'28672'
p477
sS'speed'
p478
S'57600'
p479
sS'disable_flushing'
p480
S'true'
p481
ssS'build'
p482
(dp483
S'core'
p484
S'arduino'
p485
sS'f_cpu'
p486
S'16000000L'
p487
sS'vid'
p488
S'0x2341'
p489
sS'pid'
p490
S'0x8037'
p491
sS'variant'
p492
S'micro'
p493
sS'mcu'
p494
S'atmega32u4'
p495
ssS'name'
p496
S'Arduino Micro'
p497
saa(lp498
S'mini328'
p499
a(dp500
S'bootloader'
p501
(dp502
S'extended_fuses'
p503
S'0x05'
p504
sS'high_fuses'
p505
S'0xd8'
p506
sS'low_fuses'
p507
S'0xff'
p508
sS'lock_bits'
p509
S'0x0F'
p510
sS'file'
p511
S'optiboot_atmega328-Mini.hex'
p512
sS'path'
p513
S'optiboot'
p514
sS'unlock_bits'
p515
S'0x3F'
p516
ssS'upload'
p517
(dp518
S'protocol'
p519
S'arduino'
p520
sS'maximum_size'
p521
S'28672'
p522
sS'speed'
p523
S'115200'
p524
ssS'build'
p525
(dp526
S'core'
p527
S'arduino'
p528
sS'mcu'
p529
S'atmega328p'
p530
sS'f_cpu'
p531
S'16000000L'
p532
sS'variant'
p533
S'eightanaloginputs'
p534
ssS'name'
p535
S'Arduino Mini w/ ATmega328'
p536
saa(lp537
S'mini'
p538
a(dp539
S'bootloader'
p540
(dp541
S'extended_fuses'
p542
S'0x00'
p543
sS'high_fuses'
p544
S'0xdd'
p545
sS'low_fuses'
p546
S'0xff'
p547
sS'lock_bits'
p548
S'0x0F'
p549
sS'file'
p550
S'ATmegaBOOT_168_ng.hex'
p551
sS'path'
p552
S'atmega'
p553
sS'unlock_bits'
p554
S'0x3F'
p555
ssS'upload'
p556
(dp557
S'protocol'
p558
S'arduino'
p559
sS'maximum_size'
p560
S'14336'
p561
sS'speed'
p562
S'19200'
p563
ssS'build'
p564
(dp565
S'core'
p566
S'arduino'
p567
sS'mcu'
p568
S'atmega168'
p569
sS'f_cpu'
p570
S'16000000L'
p571
sS'variant'
p572
S'eightanaloginputs'
p573
ssS'name'
p574
S'Arduino Mini w/ ATmega168'
p575
saa(lp576
S'ethernet'
p577
a(dp578
S'bootloader'
p579
(dp580
S'extended_fuses'
p581
S'0x05'
p582
sS'high_fuses'
p583
S'0xde'
p584
sS'low_fuses'
p585
S'0xff'
p586
sS'lock_bits'
p587
S'0x0F'
p588
sS'file'
p589
S'optiboot_atmega328.hex'
p590
sS'path'
p591
S'optiboot'
p592
sS'unlock_bits'
p593
S'0x3F'
p594
ssS'upload'
p595
(dp596
S'protocol'
p597
S'arduino'
p598
sS'maximum_size'
p599
S'32256'
p600
sS'speed'
p601
S'115200'
p602
ssS'build'
p603
(dp604
S'variant'
p605
S'standard'
p606
sS'mcu'
p607
S'atmega328p'
p608
sS'f_cpu'
p609
S'16000000L'
p610
sS'core'
p611
S'arduino'
p612
ssS'name'
p613
S'Arduino Ethernet'
p614
saa(lp615
S'fio'
p616
a(dp617
S'bootloader'
p618
(dp619
S'extended_fuses'
p620
S'0x05'
p621
sS'high_fuses'
p622
S'0xDA'
p623
sS'low_fuses'
p624
S'0xFF'
p625
sS'lock_bits'
p626
S'0x0F'
p627
sS'file'
p628
S'ATmegaBOOT_168_atmega328_pro_8MHz.hex'
p629
sS'path'
p630
S'arduino:atmega'
p631
sS'unlock_bits'
p632
S'0x3F'
p633
ssS'upload'
p634
(dp635
S'protocol'
p636
S'arduino'
p637
sS'maximum_size'
p638
S'30720'
p639
sS'speed'
p640
S'57600'
p641
ssS'build'
p642
(dp643
S'core'
p644
S'arduino'
p645
sS'mcu'
p646
S'atmega328p'
p647
sS'f_cpu'
p648
S'8000000L'
p649
sS'variant'
p650
S'eightanaloginputs'
p651
ssS'name'
p652
S'Arduino Fio'
p653
saa(lp654
S'bt328'
p655
a(dp656
S'bootloader'
p657
(dp658
S'extended_fuses'
p659
S'0x05'
p660
sS'high_fuses'
p661
S'0xd8'
p662
sS'low_fuses'
p663
S'0xff'
p664
sS'lock_bits'
p665
S'0x0F'
p666
sS'file'
p667
S'ATmegaBOOT_168_atmega328_bt.hex'
p668
sS'path'
p669
S'bt'
p670
sS'unlock_bits'
p671
S'0x3F'
p672
ssS'upload'
p673
(dp674
S'protocol'
p675
S'arduino'
p676
sS'maximum_size'
p677
S'28672'
p678
sS'speed'
p679
S'19200'
p680
sS'disable_flushing'
p681
S'true'
p682
ssS'build'
p683
(dp684
S'core'
p685
S'arduino'
p686
sS'mcu'
p687
S'atmega328p'
p688
sS'f_cpu'
p689
S'16000000L'
p690
sS'variant'
p691
S'eightanaloginputs'
p692
ssS'name'
p693
S'Arduino BT w/ ATmega328'
p694
saa(lp695
S'bt'
p696
a(dp697
S'bootloader'
p698
(dp699
S'extended_fuses'
p700
S'0x00'
p701
sS'high_fuses'
p702
S'0xdd'
p703
sS'low_fuses'
p704
S'0xff'
p705
sS'lock_bits'
p706
S'0x0F'
p707
sS'file'
p708
S'ATmegaBOOT_168.hex'
p709
sS'path'
p710
S'bt'
p711
sS'unlock_bits'
p712
S'0x3F'
p713
ssS'upload'
p714
(dp715
S'protocol'
p716
S'arduino'
p717
sS'maximum_size'
p718
S'14336'
p719
sS'speed'
p720
S'19200'
p721
sS'disable_flushing'
p722
S'true'
p723
ssS'build'
p724
(dp725
S'core'
p726
S'arduino'
p727
sS'mcu'
p728
S'atmega168'
p729
sS'f_cpu'
p730
S'16000000L'
p731
sS'variant'
p732
S'eightanaloginputs'
p733
ssS'name'
p734
S'Arduino BT w/ ATmega168'
p735
saa(lp736
S'LilyPadUSB'
p737
a(dp738
S'bootloader'
p739
(dp740
S'extended_fuses'
p741
S'0xce'
p742
sS'high_fuses'
p743
S'0xd8'
p744
sS'low_fuses'
p745
S'0xff'
p746
sS'lock_bits'
p747
S'0x2F'
p748
sS'file'
p749
S'Caterina-LilyPadUSB.hex'
p750
sS'path'
p751
S'caterina-LilyPadUSB'
p752
sS'unlock_bits'
p753
S'0x3F'
p754
ssS'upload'
p755
(dp756
S'protocol'
p757
S'avr109'
p758
sS'maximum_size'
p759
S'28672'
p760
sS'speed'
p761
S'57600'
p762
sS'disable_flushing'
p763
S'true'
p764
ssS'build'
p765
(dp766
S'core'
p767
S'arduino'
p768
sS'f_cpu'
p769
S'8000000L'
p770
sS'vid'
p771
S'0x1B4F'
p772
sS'pid'
p773
S'0x9208'
p774
sS'variant'
p775
S'leonardo'
p776
sS'mcu'
p777
S'atmega32u4'
p778
ssS'name'
p779
S'LilyPad Arduino USB'
p780
saa(lp781
S'lilypad328'
p782
a(dp783
S'bootloader'
p784
(dp785
S'extended_fuses'
p786
S'0x05'
p787
sS'high_fuses'
p788
S'0xDA'
p789
sS'low_fuses'
p790
S'0xFF'
p791
sS'lock_bits'
p792
S'0x0F'
p793
sS'file'
p794
S'ATmegaBOOT_168_atmega328_pro_8MHz.hex'
p795
sS'path'
p796
S'atmega'
p797
sS'unlock_bits'
p798
S'0x3F'
p799
ssS'upload'
p800
(dp801
S'protocol'
p802
S'arduino'
p803
sS'maximum_size'
p804
S'30720'
p805
sS'speed'
p806
S'57600'
p807
ssS'build'
p808
(dp809
S'core'
p810
S'arduino'
p811
sS'mcu'
p812
S'atmega328p'
p813
sS'f_cpu'
p814
S'8000000L'
p815
sS'variant'
p816
S'standard'
p817
ssS'name'
p818
S'LilyPad Arduino w/ ATmega328'
p819
saa(lp820
S'lilypad'
p821
a(dp822
S'bootloader'
p823
(dp824
S'extended_fuses'
p825
S'0x00'
p826
sS'high_fuses'
p827
S'0xdd'
p828
sS'low_fuses'
p829
S'0xe2'
p830
sS'lock_bits'
p831
S'0x0F'
p832
sS'file'
p833
S'LilyPadBOOT_168.hex'
p834
sS'path'
p835
S'lilypad'
p836
sS'unlock_bits'
p837
S'0x3F'
p838
ssS'upload'
p839
(dp840
S'protocol'
p841
S'arduino'
p842
sS'maximum_size'
p843
S'14336'
p844
sS'speed'
p845
S'19200'
p846
ssS'build'
p847
(dp848
S'core'
p849
S'arduino'
p850
sS'mcu'
p851
S'atmega168'
p852
sS'f_cpu'
p853
S'8000000L'
p854
sS'variant'
p855
S'standard'
p856
ssS'name'
p857
S'LilyPad Arduino w/ ATmega168'
p858
saa(lp859
S'pro5v328'
p860
a(dp861
S'bootloader'
p862
(dp863
S'extended_fuses'
p864
S'0x05'
p865
sS'high_fuses'
p866
S'0xDA'
p867
sS'low_fuses'
p868
S'0xFF'
p869
sS'lock_bits'
p870
S'0x0F'
p871
sS'file'
p872
S'ATmegaBOOT_168_atmega328.hex'
p873
sS'path'
p874
S'atmega'
p875
sS'unlock_bits'
p876
S'0x3F'
p877
ssS'upload'
p878
(dp879
S'protocol'
p880
S'arduino'
p881
sS'maximum_size'
p882
S'30720'
p883
sS'speed'
p884
S'57600'
p885
ssS'build'
p886
(dp887
S'core'
p888
S'arduino'
p889
sS'mcu'
p890
S'atmega328p'
p891
sS'f_cpu'
p892
S'16000000L'
p893
sS'variant'
p894
S'standard'
p895
ssS'name'
p896
S'Arduino Pro or Pro Mini (5V, 16 MHz) w/ ATmega328'
p897
saa(lp898
S'pro5v'
p899
a(dp900
S'bootloader'
p901
(dp902
S'extended_fuses'
p903
S'0x00'
p904
sS'high_fuses'
p905
S'0xdd'
p906
sS'low_fuses'
p907
S'0xff'
p908
sS'lock_bits'
p909
S'0x0F'
p910
sS'file'
p911
S'ATmegaBOOT_168_diecimila.hex'
p912
sS'path'
p913
S'atmega'
p914
sS'unlock_bits'
p915
S'0x3F'
p916
ssS'upload'
p917
(dp918
S'protocol'
p919
S'arduino'
p920
sS'maximum_size'
p921
S'14336'
p922
sS'speed'
p923
S'19200'
p924
ssS'build'
p925
(dp926
S'core'
p927
S'arduino'
p928
sS'mcu'
p929
S'atmega168'
p930
sS'f_cpu'
p931
S'16000000L'
p932
sS'variant'
p933
S'standard'
p934
ssS'name'
p935
S'Arduino Pro or Pro Mini (5V, 16 MHz) w/ ATmega168'
p936
saa(lp937
S'pro328'
p938
a(dp939
S'bootloader'
p940
(dp941
S'extended_fuses'
p942
S'0x05'
p943
sS'high_fuses'
p944
S'0xDA'
p945
sS'low_fuses'
p946
S'0xFF'
p947
sS'lock_bits'
p948
S'0x0F'
p949
sS'file'
p950
S'ATmegaBOOT_168_atmega328_pro_8MHz.hex'
p951
sS'path'
p952
S'atmega'
p953
sS'unlock_bits'
p954
S'0x3F'
p955
ssS'upload'
p956
(dp957
S'protocol'
p958
S'arduino'
p959
sS'maximum_size'
p960
S'30720'
p961
sS'speed'
p962
S'57600'
p963
ssS'build'
p964
(dp965
S'core'
p966
S'arduino'
p967
sS'mcu'
p968
S'atmega328p'
p969
sS'f_cpu'
p970
S'8000000L'
p971
sS'variant'
p972
S'standard'
p973
ssS'name'
p974
S'Arduino Pro or Pro Mini (3.3V, 8 MHz) w/ ATmega328'
p975
saa(lp976
S'pro'
p977
a(dp978
S'bootloader'
p979
(dp980
S'extended_fuses'
p981
S'0x00'
p982
sS'high_fuses'
p983
S'0xdd'
p984
sS'low_fuses'
p985
S'0xc6'
p986
sS'lock_bits'
p987
S'0x0F'
p988
sS'file'
p989
S'ATmegaBOOT_168_pro_8MHz.hex'
p990
sS'path'
p991
S'atmega'
p992
sS'unlock_bits'
p993
S'0x3F'
p994
ssS'upload'
p995
(dp996
S'protocol'
p997
S'arduino'
p998
sS'maximum_size'
p999
S'14336'
p1000
sS'speed'
p1001
S'19200'
p1002
ssS'build'
p1003
(dp1004
S'core'
p1005
S'arduino'
p1006
sS'mcu'
p1007
S'atmega168'
p1008
sS'f_cpu'
p1009
S'8000000L'
p1010
sS'variant'
p1011
S'standard'
p1012
ssS'name'
p1013
S'Arduino Pro or Pro Mini (3.3V, 8 MHz) w/ ATmega168'
p1014
saa(lp1015
S'atmega168'
p1016
a(dp1017
S'bootloader'
p1018
(dp1019
S'extended_fuses'
p1020
S'0x00'
p1021
sS'high_fuses'
p1022
S'0xdd'
p1023
sS'low_fuses'
p1024
S'0xff'
p1025
sS'lock_bits'
p1026
S'0x0F'
p1027
sS'file'
p1028
S'ATmegaBOOT_168_ng.hex'
p1029
sS'path'
p1030
S'atmega'
p1031
sS'unlock_bits'
p1032
S'0x3F'
p1033
ssS'upload'
p1034
(dp1035
S'protocol'
p1036
S'arduino'
p1037
sS'maximum_size'
p1038
S'14336'
p1039
sS'speed'
p1040
S'19200'
p1041
ssS'build'
p1042
(dp1043
S'core'
p1044
S'arduino'
p1045
sS'mcu'
p1046
S'atmega168'
p1047
sS'f_cpu'
p1048
S'16000000L'
p1049
sS'variant'
p1050
S'standard'
p1051
ssS'name'
p1052
S'Arduino NG or older w/ ATmega168'
p1053
saa(lp1054
S'atmega8'
p1055
a(dp1056
S'bootloader'
p1057
(dp1058
S'high_fuses'
p1059
S'0xca'
p1060
sS'low_fuses'
p1061
S'0xdf'
p1062
sS'lock_bits'
p1063
S'0x0F'
p1064
sS'file'
p1065
S'ATmegaBOOT-prod-firmware-2009-11-07.hex'
p1066
sS'path'
p1067
S'atmega8'
p1068
sS'unlock_bits'
p1069
S'0x3F'
p1070
ssS'upload'
p1071
(dp1072
S'protocol'
p1073
S'arduino'
p1074
sS'maximum_size'
p1075
S'7168'
p1076
sS'speed'
p1077
S'19200'
p1078
ssS'build'
p1079
(dp1080
S'core'
p1081
S'arduino'
p1082
sS'mcu'
p1083
S'atmega8'
p1084
sS'f_cpu'
p1085
S'16000000L'
p1086
sS'variant'
p1087
S'standard'
p1088
ssS'name'
p1089
S'Arduino NG or older w/ ATmega8'
p1090
saa(lp1091
S'robotControl'
p1092
a(dp1093
S'bootloader'
p1094
(dp1095
S'extended_fuses'
p1096
S'0xcb'
p1097
sS'high_fuses'
p1098
S'0xd8'
p1099
sS'low_fuses'
p1100
S'0xff'
p1101
sS'lock_bits'
p1102
S'0x2F'
p1103
sS'file'
p1104
S'Caterina-Robot-Control.hex'
p1105
sS'path'
p1106
S'caterina-Arduino_Robot'
p1107
sS'unlock_bits'
p1108
S'0x3F'
p1109
ssS'upload'
p1110
(dp1111
S'protocol'
p1112
S'avr109'
p1113
sS'maximum_size'
p1114
S'28672'
p1115
sS'speed'
p1116
S'57600'
p1117
sS'disable_flushing'
p1118
S'true'
p1119
ssS'build'
p1120
(dp1121
S'core'
p1122
S'robot'
p1123
sS'f_cpu'
p1124
S'16000000L'
p1125
sS'vid'
p1126
S'0x2341'
p1127
sS'pid'
p1128
S'0x8038'
p1129
sS'variant'
p1130
S'robot_control'
p1131
sS'mcu'
p1132
S'atmega32u4'
p1133
ssS'name'
p1134
S'Arduino Robot Control'
p1135
saa(lp1136
S'robotMotor'
p1137
a(dp1138
S'bootloader'
p1139
(dp1140
S'extended_fuses'
p1141
S'0xcb'
p1142
sS'high_fuses'
p1143
S'0xd8'
p1144
sS'low_fuses'
p1145
S'0xff'
p1146
sS'lock_bits'
p1147
S'0x2F'
p1148
sS'file'
p1149
S'Caterina-Robot-Motor.hex'
p1150
sS'path'
p1151
S'caterina-Arduino_Robot'
p1152
sS'unlock_bits'
p1153
S'0x3F'
p1154
ssS'upload'
p1155
(dp1156
S'protocol'
p1157
S'avr109'
p1158
sS'maximum_size'
p1159
S'28672'
p1160
sS'speed'
p1161
S'57600'
p1162
sS'disable_flushing'
p1163
S'true'
p1164
ssS'build'
p1165
(dp1166
S'core'
p1167
S'robot'
p1168
sS'f_cpu'
p1169
S'16000000L'
p1170
sS'vid'
p1171
S'0x2341'
p1172
sS'pid'
p1173
S'0x8039'
p1174
sS'variant'
p1175
S'robot_motor'
p1176
sS'mcu'
p1177
S'atmega32u4'
p1178
ssS'name'
p1179
S'Arduino Robot Motor'
p1180
saatp1181
Rp1182
(dp1183
S'default'
p1184
S'uno'
p1185
sbtp1186
a(S'elfflags'
p1187
g14
(g15
g16
(lp1188
g22
aS'-Wl,--gc-sections'
p1189
ag18
atp1190
Rp1191
tp1192
a.