(lp0
(S'elfflags'
p1
ccopy_reg
_reconstructor
p2
(cino.utils
SpaceList
p3
c__builtin__
list
p4
(lp5
S'-Os'
p6
aS'-Wl,--gc-sections'
p7
aS'-mmcu=atmega328p'
p8
atp9
Rp10
tp11
a(S'version.txt'
p12
S'/usr/share/arduino/lib/version.txt'
p13
tp14
a(S'used_libs'
p15
(lp16
S'/usr/share/arduino/hardware/arduino/cores/arduino'
p17
atp18
a(S'cc'
p19
S'/usr/share/arduino/hardware/tools/avr/bin/avr-gcc'
p20
tp21
a(S'build_dir'
p22
S'.build/uno'
p23
tp24
a(S'arduino_core_dir'
p25
g17
tp26
a(S'boards.txt'
p27
S'/usr/share/arduino/hardware/arduino/boards.txt'
p28
tp29
a(S'cxxflags'
p30
g2
(g3
g4
(lp31
S'-fno-exceptions'
p32
atp33
Rp34
tp35
a(S'arduino_variants_dir'
p36
S'/usr/share/arduino/hardware/arduino/variants'
p37
tp38
a(S'deps'
p39
g2
(g3
g4
(lp40
S'.build/uno/src/dependencies.d'
p41
aS'.build/uno/arduino/dependencies.d'
p42
atp43
Rp44
tp45
a(S'ar'
p46
S'/usr/share/arduino/hardware/tools/avr/bin/avr-ar'
p47
tp48
a(S'names'
p49
(dp50
S'cpp'
p51
S'%s.cpp'
p52
sS'obj'
p53
S'%s.o'
p54
sg39
S'%s.d'
p55
sS'lib'
p56
S'lib%s.a'
p57
stp58
a(S'cflags'
p59
g2
(g3
g4
(lp60
g8
aS'-ffunction-sections'
p61
aS'-fdata-sections'
p62
aS'-g'
p63
ag6
aS'-w'
p64
aS'-DF_CPU=16000000L'
p65
aS'-DARDUINO=100'
p66
aS'-I/usr/share/arduino/hardware/arduino/cores/arduino'
p67
aS'-I/usr/share/arduino/hardware/arduino/variants/standard'
p68
aS'-I/usr/share/arduino/hardware/arduino/cores/arduino'
p69
aS'-I/usr/share/arduino/hardware/arduino/cores/arduino/avr-libc'
p70
atp71
Rp72
tp73
a(S'arduino_libraries_dir'
p74
S'/usr/share/arduino/libraries'
p75
tp76
a(S'arduino_lib_version'
p77
g2
(cino.environment
Version
p78
c__builtin__
tuple
p79
(I1
I0
tp80
tp81
Rp82
tp83
a(S'objcopy'
p84
S'/usr/share/arduino/hardware/tools/avr/bin/avr-objcopy'
p85
tp86
a(S'board_models'
p87
cino.environment
BoardModels
p88
((lp89
(lp90
S'uno'
p91
a(dp92
S'build'
p93
(dp94
S'core'
p95
S'arduino'
p96
sS'mcu'
p97
S'atmega328p'
p98
sS'f_cpu'
p99
S'16000000L'
p100
sS'variant'
p101
S'standard'
p102
ssS'bootloader'
p103
(dp104
S'extended_fuses'
p105
S'0x05'
p106
sS'high_fuses'
p107
S'0xde'
p108
sS'low_fuses'
p109
S'0xff'
p110
sS'lock_bits'
p111
S'0x0F'
p112
sS'file'
p113
S'optiboot_atmega328.hex'
p114
sS'path'
p115
S'optiboot'
p116
sS'unlock_bits'
p117
S'0x3F'
p118
ssS'name'
p119
S'Arduino Uno'
p120
sS'upload'
p121
(dp122
S'speed'
p123
S'115200'
p124
sS'maximum_size'
p125
S'32256'
p126
sS'protocol'
p127
S'arduino'
p128
ssaa(lp129
S'atmega328'
p130
a(dp131
S'build'
p132
(dp133
S'core'
p134
S'arduino'
p135
sS'mcu'
p136
S'atmega328p'
p137
sS'f_cpu'
p138
S'16000000L'
p139
sS'variant'
p140
S'standard'
p141
ssS'bootloader'
p142
(dp143
S'extended_fuses'
p144
S'0x05'
p145
sS'high_fuses'
p146
S'0xDA'
p147
sS'low_fuses'
p148
S'0xFF'
p149
sS'lock_bits'
p150
S'0x0F'
p151
sS'file'
p152
S'ATmegaBOOT_168_atmega328.hex'
p153
sS'path'
p154
S'atmega'
p155
sS'unlock_bits'
p156
S'0x3F'
p157
ssS'name'
p158
S'Arduino Duemilanove w/ ATmega328'
p159
sS'upload'
p160
(dp161
S'speed'
p162
S'57600'
p163
sS'maximum_size'
p164
S'30720'
p165
sS'protocol'
p166
S'arduino'
p167
ssaa(lp168
S'diecimila'
p169
a(dp170
S'build'
p171
(dp172
S'core'
p173
S'arduino'
p174
sS'mcu'
p175
S'atmega168'
p176
sS'f_cpu'
p177
S'16000000L'
p178
sS'variant'
p179
S'standard'
p180
ssS'bootloader'
p181
(dp182
S'extended_fuses'
p183
S'0x00'
p184
sS'high_fuses'
p185
S'0xdd'
p186
sS'low_fuses'
p187
S'0xff'
p188
sS'lock_bits'
p189
S'0x0F'
p190
sS'file'
p191
S'ATmegaBOOT_168_diecimila.hex'
p192
sS'path'
p193
S'atmega'
p194
sS'unlock_bits'
p195
S'0x3F'
p196
ssS'name'
p197
S'Arduino Diecimila or Duemilanove w/ ATmega168'
p198
sS'upload'
p199
(dp200
S'speed'
p201
S'19200'
p202
sS'maximum_size'
p203
S'14336'
p204
sS'protocol'
p205
S'arduino'
p206
ssaa(lp207
S'nano328'
p208
a(dp209
S'build'
p210
(dp211
S'core'
p212
S'arduino'
p213
sS'mcu'
p214
S'atmega328p'
p215
sS'f_cpu'
p216
S'16000000L'
p217
sS'variant'
p218
S'eightanaloginputs'
p219
ssS'bootloader'
p220
(dp221
S'extended_fuses'
p222
S'0x05'
p223
sS'high_fuses'
p224
S'0xDA'
p225
sS'low_fuses'
p226
S'0xFF'
p227
sS'lock_bits'
p228
S'0x0F'
p229
sS'file'
p230
S'ATmegaBOOT_168_atmega328.hex'
p231
sS'path'
p232
S'atmega'
p233
sS'unlock_bits'
p234
S'0x3F'
p235
ssS'name'
p236
S'Arduino Nano w/ ATmega328'
p237
sS'upload'
p238
(dp239
S'speed'
p240
S'57600'
p241
sS'maximum_size'
p242
S'30720'
p243
sS'protocol'
p244
S'arduino'
p245
ssaa(lp246
S'nano'
p247
a(dp248
S'build'
p249
(dp250
S'core'
p251
S'arduino'
p252
sS'mcu'
p253
S'atmega168'
p254
sS'f_cpu'
p255
S'16000000L'
p256
sS'variant'
p257
S'eightanaloginputs'
p258
ssS'bootloader'
p259
(dp260
S'extended_fuses'
p261
S'0x00'
p262
sS'high_fuses'
p263
S'0xdd'
p264
sS'low_fuses'
p265
S'0xff'
p266
sS'lock_bits'
p267
S'0x0F'
p268
sS'file'
p269
S'ATmegaBOOT_168_diecimila.hex'
p270
sS'path'
p271
S'atmega'
p272
sS'unlock_bits'
p273
S'0x3F'
p274
ssS'name'
p275
S'Arduino Nano w/ ATmega168'
p276
sS'upload'
p277
(dp278
S'speed'
p279
S'19200'
p280
sS'maximum_size'
p281
S'14336'
p282
sS'protocol'
p283
S'arduino'
p284
ssaa(lp285
S'mega2560'
p286
a(dp287
S'build'
p288
(dp289
S'core'
p290
S'arduino'
p291
sS'mcu'
p292
S'atmega2560'
p293
sS'f_cpu'
p294
S'16000000L'
p295
sS'variant'
p296
S'mega'
p297
ssS'bootloader'
p298
(dp299
S'extended_fuses'
p300
S'0xFD'
p301
sS'high_fuses'
p302
S'0xD8'
p303
sS'low_fuses'
p304
S'0xFF'
p305
sS'lock_bits'
p306
S'0x0F'
p307
sS'file'
p308
S'stk500boot_v2_mega2560.hex'
p309
sS'path'
p310
S'stk500v2'
p311
sS'unlock_bits'
p312
S'0x3F'
p313
ssS'name'
p314
S'Arduino Mega 2560 or Mega ADK'
p315
sS'upload'
p316
(dp317
S'speed'
p318
S'115200'
p319
sS'maximum_size'
p320
S'258048'
p321
sS'protocol'
p322
S'wiring'
p323
ssaa(lp324
S'mega'
p325
a(dp326
S'build'
p327
(dp328
S'core'
p329
S'arduino'
p330
sS'mcu'
p331
S'atmega1280'
p332
sS'f_cpu'
p333
S'16000000L'
p334
sS'variant'
p335
S'mega'
p336
ssS'bootloader'
p337
(dp338
S'extended_fuses'
p339
S'0xF5'
p340
sS'high_fuses'
p341
S'0xDA'
p342
sS'low_fuses'
p343
S'0xFF'
p344
sS'lock_bits'
p345
S'0x0F'
p346
sS'file'
p347
S'ATmegaBOOT_168_atmega1280.hex'
p348
sS'path'
p349
S'atmega'
p350
sS'unlock_bits'
p351
S'0x3F'
p352
ssS'name'
p353
S'Arduino Mega (ATmega1280)'
p354
sS'upload'
p355
(dp356
S'speed'
p357
S'57600'
p358
sS'maximum_size'
p359
S'126976'
p360
sS'protocol'
p361
S'arduino'
p362
ssaa(lp363
S'leonardo'
p364
a(dp365
S'build'
p366
(dp367
S'core'
p368
S'arduino'
p369
sS'f_cpu'
p370
S'16000000L'
p371
sS'vid'
p372
S'0x2341'
p373
sS'pid'
p374
S'0x8036'
p375
sS'variant'
p376
S'leonardo'
p377
sS'mcu'
p378
S'atmega32u4'
p379
ssS'bootloader'
p380
(dp381
S'extended_fuses'
p382
S'0xcb'
p383
sS'high_fuses'
p384
S'0xd8'
p385
sS'low_fuses'
p386
S'0xff'
p387
sS'lock_bits'
p388
S'0x2F'
p389
sS'file'
p390
S'Caterina-Leonardo.hex'
p391
sS'path'
p392
S'caterina'
p393
sS'unlock_bits'
p394
S'0x3F'
p395
ssS'name'
p396
S'Arduino Leonardo'
p397
sS'upload'
p398
(dp399
S'speed'
p400
S'57600'
p401
sS'maximum_size'
p402
S'28672'
p403
sS'protocol'
p404
S'avr109'
p405
sS'disable_flushing'
p406
S'true'
p407
ssaa(lp408
S'esplora'
p409
a(dp410
S'build'
p411
(dp412
S'core'
p413
S'arduino'
p414
sS'f_cpu'
p415
S'16000000L'
p416
sS'vid'
p417
S'0x2341'
p418
sS'pid'
p419
S'0x803C'
p420
sS'variant'
p421
S'leonardo'
p422
sS'mcu'
p423
S'atmega32u4'
p424
ssS'bootloader'
p425
(dp426
S'extended_fuses'
p427
S'0xcb'
p428
sS'high_fuses'
p429
S'0xd8'
p430
sS'low_fuses'
p431
S'0xff'
p432
sS'lock_bits'
p433
S'0x2F'
p434
sS'file'
p435
S'Caterina-Esplora.hex'
p436
sS'path'
p437
S'caterina'
p438
sS'unlock_bits'
p439
S'0x3F'
p440
ssS'name'
p441
S'Arduino Esplora'
p442
sS'upload'
p443
(dp444
S'speed'
p445
S'57600'
p446
sS'maximum_size'
p447
S'28672'
p448
sS'protocol'
p449
S'avr109'
p450
sS'disable_flushing'
p451
S'true'
p452
ssaa(lp453
S'micro'
p454
a(dp455
S'build'
p456
(dp457
S'core'
p458
S'arduino'
p459
sS'f_cpu'
p460
S'16000000L'
p461
sS'vid'
p462
S'0x2341'
p463
sS'pid'
p464
S'0x8037'
p465
sS'variant'
p466
S'micro'
p467
sS'mcu'
p468
S'atmega32u4'
p469
ssS'bootloader'
p470
(dp471
S'extended_fuses'
p472
S'0xcb'
p473
sS'high_fuses'
p474
S'0xd8'
p475
sS'low_fuses'
p476
S'0xff'
p477
sS'lock_bits'
p478
S'0x2F'
p479
sS'file'
p480
S'Caterina-Micro.hex'
p481
sS'path'
p482
S'caterina'
p483
sS'unlock_bits'
p484
S'0x3F'
p485
ssS'name'
p486
S'Arduino Micro'
p487
sS'upload'
p488
(dp489
S'speed'
p490
S'57600'
p491
sS'maximum_size'
p492
S'28672'
p493
sS'protocol'
p494
S'avr109'
p495
sS'disable_flushing'
p496
S'true'
p497
ssaa(lp498
S'mini328'
p499
a(dp500
S'build'
p501
(dp502
S'core'
p503
S'arduino'
p504
sS'mcu'
p505
S'atmega328p'
p506
sS'f_cpu'
p507
S'16000000L'
p508
sS'variant'
p509
S'eightanaloginputs'
p510
ssS'bootloader'
p511
(dp512
S'extended_fuses'
p513
S'0x05'
p514
sS'high_fuses'
p515
S'0xd8'
p516
sS'low_fuses'
p517
S'0xff'
p518
sS'lock_bits'
p519
S'0x0F'
p520
sS'file'
p521
S'optiboot_atmega328-Mini.hex'
p522
sS'path'
p523
S'optiboot'
p524
sS'unlock_bits'
p525
S'0x3F'
p526
ssS'name'
p527
S'Arduino Mini w/ ATmega328'
p528
sS'upload'
p529
(dp530
S'speed'
p531
S'115200'
p532
sS'maximum_size'
p533
S'28672'
p534
sS'protocol'
p535
S'arduino'
p536
ssaa(lp537
S'mini'
p538
a(dp539
S'build'
p540
(dp541
S'core'
p542
S'arduino'
p543
sS'mcu'
p544
S'atmega168'
p545
sS'f_cpu'
p546
S'16000000L'
p547
sS'variant'
p548
S'eightanaloginputs'
p549
ssS'bootloader'
p550
(dp551
S'extended_fuses'
p552
S'0x00'
p553
sS'high_fuses'
p554
S'0xdd'
p555
sS'low_fuses'
p556
S'0xff'
p557
sS'lock_bits'
p558
S'0x0F'
p559
sS'file'
p560
S'ATmegaBOOT_168_ng.hex'
p561
sS'path'
p562
S'atmega'
p563
sS'unlock_bits'
p564
S'0x3F'
p565
ssS'name'
p566
S'Arduino Mini w/ ATmega168'
p567
sS'upload'
p568
(dp569
S'speed'
p570
S'19200'
p571
sS'maximum_size'
p572
S'14336'
p573
sS'protocol'
p574
S'arduino'
p575
ssaa(lp576
S'ethernet'
p577
a(dp578
S'build'
p579
(dp580
S'f_cpu'
p581
S'16000000L'
p582
sS'mcu'
p583
S'atmega328p'
p584
sS'variant'
p585
S'standard'
p586
sS'core'
p587
S'arduino'
p588
ssS'bootloader'
p589
(dp590
S'extended_fuses'
p591
S'0x05'
p592
sS'high_fuses'
p593
S'0xde'
p594
sS'low_fuses'
p595
S'0xff'
p596
sS'lock_bits'
p597
S'0x0F'
p598
sS'file'
p599
S'optiboot_atmega328.hex'
p600
sS'path'
p601
S'optiboot'
p602
sS'unlock_bits'
p603
S'0x3F'
p604
ssS'name'
p605
S'Arduino Ethernet'
p606
sS'upload'
p607
(dp608
S'speed'
p609
S'115200'
p610
sS'maximum_size'
p611
S'32256'
p612
sS'protocol'
p613
S'arduino'
p614
ssaa(lp615
S'fio'
p616
a(dp617
S'build'
p618
(dp619
S'core'
p620
S'arduino'
p621
sS'mcu'
p622
S'atmega328p'
p623
sS'f_cpu'
p624
S'8000000L'
p625
sS'variant'
p626
S'eightanaloginputs'
p627
ssS'bootloader'
p628
(dp629
S'extended_fuses'
p630
S'0x05'
p631
sS'high_fuses'
p632
S'0xDA'
p633
sS'low_fuses'
p634
S'0xFF'
p635
sS'lock_bits'
p636
S'0x0F'
p637
sS'file'
p638
S'ATmegaBOOT_168_atmega328_pro_8MHz.hex'
p639
sS'path'
p640
S'arduino:atmega'
p641
sS'unlock_bits'
p642
S'0x3F'
p643
ssS'name'
p644
S'Arduino Fio'
p645
sS'upload'
p646
(dp647
S'speed'
p648
S'57600'
p649
sS'maximum_size'
p650
S'30720'
p651
sS'protocol'
p652
S'arduino'
p653
ssaa(lp654
S'bt328'
p655
a(dp656
S'build'
p657
(dp658
S'core'
p659
S'arduino'
p660
sS'mcu'
p661
S'atmega328p'
p662
sS'f_cpu'
p663
S'16000000L'
p664
sS'variant'
p665
S'eightanaloginputs'
p666
ssS'bootloader'
p667
(dp668
S'extended_fuses'
p669
S'0x05'
p670
sS'high_fuses'
p671
S'0xd8'
p672
sS'low_fuses'
p673
S'0xff'
p674
sS'lock_bits'
p675
S'0x0F'
p676
sS'file'
p677
S'ATmegaBOOT_168_atmega328_bt.hex'
p678
sS'path'
p679
S'bt'
p680
sS'unlock_bits'
p681
S'0x3F'
p682
ssS'name'
p683
S'Arduino BT w/ ATmega328'
p684
sS'upload'
p685
(dp686
S'speed'
p687
S'19200'
p688
sS'maximum_size'
p689
S'28672'
p690
sS'protocol'
p691
S'arduino'
p692
sS'disable_flushing'
p693
S'true'
p694
ssaa(lp695
S'bt'
p696
a(dp697
S'build'
p698
(dp699
S'core'
p700
S'arduino'
p701
sS'mcu'
p702
S'atmega168'
p703
sS'f_cpu'
p704
S'16000000L'
p705
sS'variant'
p706
S'eightanaloginputs'
p707
ssS'bootloader'
p708
(dp709
S'extended_fuses'
p710
S'0x00'
p711
sS'high_fuses'
p712
S'0xdd'
p713
sS'low_fuses'
p714
S'0xff'
p715
sS'lock_bits'
p716
S'0x0F'
p717
sS'file'
p718
S'ATmegaBOOT_168.hex'
p719
sS'path'
p720
S'bt'
p721
sS'unlock_bits'
p722
S'0x3F'
p723
ssS'name'
p724
S'Arduino BT w/ ATmega168'
p725
sS'upload'
p726
(dp727
S'speed'
p728
S'19200'
p729
sS'maximum_size'
p730
S'14336'
p731
sS'protocol'
p732
S'arduino'
p733
sS'disable_flushing'
p734
S'true'
p735
ssaa(lp736
S'LilyPadUSB'
p737
a(dp738
S'build'
p739
(dp740
S'core'
p741
S'arduino'
p742
sS'f_cpu'
p743
S'8000000L'
p744
sS'vid'
p745
S'0x1B4F'
p746
sS'pid'
p747
S'0x9208'
p748
sS'variant'
p749
S'leonardo'
p750
sS'mcu'
p751
S'atmega32u4'
p752
ssS'bootloader'
p753
(dp754
S'extended_fuses'
p755
S'0xce'
p756
sS'high_fuses'
p757
S'0xd8'
p758
sS'low_fuses'
p759
S'0xff'
p760
sS'lock_bits'
p761
S'0x2F'
p762
sS'file'
p763
S'Caterina-LilyPadUSB.hex'
p764
sS'path'
p765
S'caterina-LilyPadUSB'
p766
sS'unlock_bits'
p767
S'0x3F'
p768
ssS'name'
p769
S'LilyPad Arduino USB'
p770
sS'upload'
p771
(dp772
S'speed'
p773
S'57600'
p774
sS'maximum_size'
p775
S'28672'
p776
sS'protocol'
p777
S'avr109'
p778
sS'disable_flushing'
p779
S'true'
p780
ssaa(lp781
S'lilypad328'
p782
a(dp783
S'build'
p784
(dp785
S'core'
p786
S'arduino'
p787
sS'mcu'
p788
S'atmega328p'
p789
sS'f_cpu'
p790
S'8000000L'
p791
sS'variant'
p792
S'standard'
p793
ssS'bootloader'
p794
(dp795
S'extended_fuses'
p796
S'0x05'
p797
sS'high_fuses'
p798
S'0xDA'
p799
sS'low_fuses'
p800
S'0xFF'
p801
sS'lock_bits'
p802
S'0x0F'
p803
sS'file'
p804
S'ATmegaBOOT_168_atmega328_pro_8MHz.hex'
p805
sS'path'
p806
S'atmega'
p807
sS'unlock_bits'
p808
S'0x3F'
p809
ssS'name'
p810
S'LilyPad Arduino w/ ATmega328'
p811
sS'upload'
p812
(dp813
S'speed'
p814
S'57600'
p815
sS'maximum_size'
p816
S'30720'
p817
sS'protocol'
p818
S'arduino'
p819
ssaa(lp820
S'lilypad'
p821
a(dp822
S'build'
p823
(dp824
S'core'
p825
S'arduino'
p826
sS'mcu'
p827
S'atmega168'
p828
sS'f_cpu'
p829
S'8000000L'
p830
sS'variant'
p831
S'standard'
p832
ssS'bootloader'
p833
(dp834
S'extended_fuses'
p835
S'0x00'
p836
sS'high_fuses'
p837
S'0xdd'
p838
sS'low_fuses'
p839
S'0xe2'
p840
sS'lock_bits'
p841
S'0x0F'
p842
sS'file'
p843
S'LilyPadBOOT_168.hex'
p844
sS'path'
p845
S'lilypad'
p846
sS'unlock_bits'
p847
S'0x3F'
p848
ssS'name'
p849
S'LilyPad Arduino w/ ATmega168'
p850
sS'upload'
p851
(dp852
S'speed'
p853
S'19200'
p854
sS'maximum_size'
p855
S'14336'
p856
sS'protocol'
p857
S'arduino'
p858
ssaa(lp859
S'pro5v328'
p860
a(dp861
S'build'
p862
(dp863
S'core'
p864
S'arduino'
p865
sS'mcu'
p866
S'atmega328p'
p867
sS'f_cpu'
p868
S'16000000L'
p869
sS'variant'
p870
S'standard'
p871
ssS'bootloader'
p872
(dp873
S'extended_fuses'
p874
S'0x05'
p875
sS'high_fuses'
p876
S'0xDA'
p877
sS'low_fuses'
p878
S'0xFF'
p879
sS'lock_bits'
p880
S'0x0F'
p881
sS'file'
p882
S'ATmegaBOOT_168_atmega328.hex'
p883
sS'path'
p884
S'atmega'
p885
sS'unlock_bits'
p886
S'0x3F'
p887
ssS'name'
p888
S'Arduino Pro or Pro Mini (5V, 16 MHz) w/ ATmega328'
p889
sS'upload'
p890
(dp891
S'speed'
p892
S'57600'
p893
sS'maximum_size'
p894
S'30720'
p895
sS'protocol'
p896
S'arduino'
p897
ssaa(lp898
S'pro5v'
p899
a(dp900
S'build'
p901
(dp902
S'core'
p903
S'arduino'
p904
sS'mcu'
p905
S'atmega168'
p906
sS'f_cpu'
p907
S'16000000L'
p908
sS'variant'
p909
S'standard'
p910
ssS'bootloader'
p911
(dp912
S'extended_fuses'
p913
S'0x00'
p914
sS'high_fuses'
p915
S'0xdd'
p916
sS'low_fuses'
p917
S'0xff'
p918
sS'lock_bits'
p919
S'0x0F'
p920
sS'file'
p921
S'ATmegaBOOT_168_diecimila.hex'
p922
sS'path'
p923
S'atmega'
p924
sS'unlock_bits'
p925
S'0x3F'
p926
ssS'name'
p927
S'Arduino Pro or Pro Mini (5V, 16 MHz) w/ ATmega168'
p928
sS'upload'
p929
(dp930
S'speed'
p931
S'19200'
p932
sS'maximum_size'
p933
S'14336'
p934
sS'protocol'
p935
S'arduino'
p936
ssaa(lp937
S'pro328'
p938
a(dp939
S'build'
p940
(dp941
S'core'
p942
S'arduino'
p943
sS'mcu'
p944
S'atmega328p'
p945
sS'f_cpu'
p946
S'8000000L'
p947
sS'variant'
p948
S'standard'
p949
ssS'bootloader'
p950
(dp951
S'extended_fuses'
p952
S'0x05'
p953
sS'high_fuses'
p954
S'0xDA'
p955
sS'low_fuses'
p956
S'0xFF'
p957
sS'lock_bits'
p958
S'0x0F'
p959
sS'file'
p960
S'ATmegaBOOT_168_atmega328_pro_8MHz.hex'
p961
sS'path'
p962
S'atmega'
p963
sS'unlock_bits'
p964
S'0x3F'
p965
ssS'name'
p966
S'Arduino Pro or Pro Mini (3.3V, 8 MHz) w/ ATmega328'
p967
sS'upload'
p968
(dp969
S'speed'
p970
S'57600'
p971
sS'maximum_size'
p972
S'30720'
p973
sS'protocol'
p974
S'arduino'
p975
ssaa(lp976
S'pro'
p977
a(dp978
S'build'
p979
(dp980
S'core'
p981
S'arduino'
p982
sS'mcu'
p983
S'atmega168'
p984
sS'f_cpu'
p985
S'8000000L'
p986
sS'variant'
p987
S'standard'
p988
ssS'bootloader'
p989
(dp990
S'extended_fuses'
p991
S'0x00'
p992
sS'high_fuses'
p993
S'0xdd'
p994
sS'low_fuses'
p995
S'0xc6'
p996
sS'lock_bits'
p997
S'0x0F'
p998
sS'file'
p999
S'ATmegaBOOT_168_pro_8MHz.hex'
p1000
sS'path'
p1001
S'atmega'
p1002
sS'unlock_bits'
p1003
S'0x3F'
p1004
ssS'name'
p1005
S'Arduino Pro or Pro Mini (3.3V, 8 MHz) w/ ATmega168'
p1006
sS'upload'
p1007
(dp1008
S'speed'
p1009
S'19200'
p1010
sS'maximum_size'
p1011
S'14336'
p1012
sS'protocol'
p1013
S'arduino'
p1014
ssaa(lp1015
S'atmega168'
p1016
a(dp1017
S'build'
p1018
(dp1019
S'core'
p1020
S'arduino'
p1021
sS'mcu'
p1022
S'atmega168'
p1023
sS'f_cpu'
p1024
S'16000000L'
p1025
sS'variant'
p1026
S'standard'
p1027
ssS'bootloader'
p1028
(dp1029
S'extended_fuses'
p1030
S'0x00'
p1031
sS'high_fuses'
p1032
S'0xdd'
p1033
sS'low_fuses'
p1034
S'0xff'
p1035
sS'lock_bits'
p1036
S'0x0F'
p1037
sS'file'
p1038
S'ATmegaBOOT_168_ng.hex'
p1039
sS'path'
p1040
S'atmega'
p1041
sS'unlock_bits'
p1042
S'0x3F'
p1043
ssS'name'
p1044
S'Arduino NG or older w/ ATmega168'
p1045
sS'upload'
p1046
(dp1047
S'speed'
p1048
S'19200'
p1049
sS'maximum_size'
p1050
S'14336'
p1051
sS'protocol'
p1052
S'arduino'
p1053
ssaa(lp1054
S'atmega8'
p1055
a(dp1056
S'build'
p1057
(dp1058
S'core'
p1059
S'arduino'
p1060
sS'mcu'
p1061
S'atmega8'
p1062
sS'f_cpu'
p1063
S'16000000L'
p1064
sS'variant'
p1065
S'standard'
p1066
ssS'bootloader'
p1067
(dp1068
S'high_fuses'
p1069
S'0xca'
p1070
sS'low_fuses'
p1071
S'0xdf'
p1072
sS'lock_bits'
p1073
S'0x0F'
p1074
sS'file'
p1075
S'ATmegaBOOT-prod-firmware-2009-11-07.hex'
p1076
sS'path'
p1077
S'atmega8'
p1078
sS'unlock_bits'
p1079
S'0x3F'
p1080
ssS'name'
p1081
S'Arduino NG or older w/ ATmega8'
p1082
sS'upload'
p1083
(dp1084
S'speed'
p1085
S'19200'
p1086
sS'maximum_size'
p1087
S'7168'
p1088
sS'protocol'
p1089
S'arduino'
p1090
ssaa(lp1091
S'robotControl'
p1092
a(dp1093
S'build'
p1094
(dp1095
S'core'
p1096
S'robot'
p1097
sS'f_cpu'
p1098
S'16000000L'
p1099
sS'vid'
p1100
S'0x2341'
p1101
sS'pid'
p1102
S'0x8038'
p1103
sS'variant'
p1104
S'robot_control'
p1105
sS'mcu'
p1106
S'atmega32u4'
p1107
ssS'bootloader'
p1108
(dp1109
S'extended_fuses'
p1110
S'0xcb'
p1111
sS'high_fuses'
p1112
S'0xd8'
p1113
sS'low_fuses'
p1114
S'0xff'
p1115
sS'lock_bits'
p1116
S'0x2F'
p1117
sS'file'
p1118
S'Caterina-Robot-Control.hex'
p1119
sS'path'
p1120
S'caterina-Arduino_Robot'
p1121
sS'unlock_bits'
p1122
S'0x3F'
p1123
ssS'name'
p1124
S'Arduino Robot Control'
p1125
sS'upload'
p1126
(dp1127
S'speed'
p1128
S'57600'
p1129
sS'maximum_size'
p1130
S'28672'
p1131
sS'protocol'
p1132
S'avr109'
p1133
sS'disable_flushing'
p1134
S'true'
p1135
ssaa(lp1136
S'robotMotor'
p1137
a(dp1138
S'build'
p1139
(dp1140
S'core'
p1141
S'robot'
p1142
sS'f_cpu'
p1143
S'16000000L'
p1144
sS'vid'
p1145
S'0x2341'
p1146
sS'pid'
p1147
S'0x8039'
p1148
sS'variant'
p1149
S'robot_motor'
p1150
sS'mcu'
p1151
S'atmega32u4'
p1152
ssS'bootloader'
p1153
(dp1154
S'extended_fuses'
p1155
S'0xcb'
p1156
sS'high_fuses'
p1157
S'0xd8'
p1158
sS'low_fuses'
p1159
S'0xff'
p1160
sS'lock_bits'
p1161
S'0x2F'
p1162
sS'file'
p1163
S'Caterina-Robot-Motor.hex'
p1164
sS'path'
p1165
S'caterina-Arduino_Robot'
p1166
sS'unlock_bits'
p1167
S'0x3F'
p1168
ssS'name'
p1169
S'Arduino Robot Motor'
p1170
sS'upload'
p1171
(dp1172
S'speed'
p1173
S'57600'
p1174
sS'maximum_size'
p1175
S'28672'
p1176
sS'protocol'
p1177
S'avr109'
p1178
sS'disable_flushing'
p1179
S'true'
p1180
ssaatp1181
Rp1182
(dp1183
S'default'
p1184
S'uno'
p1185
sbtp1186
a(S'cxx'
p1187
S'/usr/share/arduino/hardware/tools/avr/bin/avr-g++'
p1188
tp1189
a.